---
triple:          'arm64-apple-darwin'
binary-path:     '/Users/maru/jenga/jenga-algo/advanced_algorithms_complexity/airlinecrews'
relocations:
  - { offsetInCU: 0x3F, offset: 0x3F, size: 0x8, addend: 0x0, symName: _nx, symObjAddr: 0x42614, symBinAddr: 0x10000C000, symSize: 0x0 }
  - { offsetInCU: 0x5B, offset: 0x5B, size: 0x8, addend: 0x0, symName: _ny, symObjAddr: 0x42618, symBinAddr: 0x10000C004, symSize: 0x0 }
  - { offsetInCU: 0x70, offset: 0x70, size: 0x8, addend: 0x0, symName: _cx, symObjAddr: 0x4261C, symBinAddr: 0x10000C008, symSize: 0x0 }
  - { offsetInCU: 0x98, offset: 0x98, size: 0x8, addend: 0x0, symName: _cy, symObjAddr: 0x427AC, symBinAddr: 0x10000C198, symSize: 0x0 }
  - { offsetInCU: 0xAD, offset: 0xAD, size: 0x8, addend: 0x0, symName: _mk, symObjAddr: 0x4293C, symBinAddr: 0x10000C328, symSize: 0x0 }
  - { offsetInCU: 0x46AC, offset: 0x46AC, size: 0x8, addend: 0x0, symName: __ZNSt3__113__fill_n_trueB8ue170006INS_6vectorIbNS_9allocatorIbEEEEEEvNS_14__bit_iteratorIT_Lb0EXLi0EEEENS6_9size_typeE, symObjAddr: 0x17E8, symBinAddr: 0x100002120, symSize: 0x160 }
  - { offsetInCU: 0x4771, offset: 0x4771, size: 0x8, addend: 0x0, symName: __ZNSt3__114__fill_n_falseB8ue170006INS_6vectorIbNS_9allocatorIbEEEEEEvNS_14__bit_iteratorIT_Lb0EXLi0EEEENS6_9size_typeE, symObjAddr: 0x197C, symBinAddr: 0x1000022B4, symSize: 0x15C }
  - { offsetInCU: 0x6C38, offset: 0x6C38, size: 0x8, addend: 0x0, symName: __ZNSt3__124__put_character_sequenceB8ue170006IcNS_11char_traitsIcEEEERNS_13basic_ostreamIT_T0_EES7_PKS4_m, symObjAddr: 0x6194, symBinAddr: 0x100006ACC, symSize: 0x1EC }
  - { offsetInCU: 0x89AE, offset: 0x89AE, size: 0x8, addend: 0x0, symName: __ZNSt3__1lsB8ue170006INS_11char_traitsIcEEEERNS_13basic_ostreamIcT_EES6_PKc, symObjAddr: 0xBFC, symBinAddr: 0x100001534, symSize: 0x48 }
  - { offsetInCU: 0x89F4, offset: 0x89F4, size: 0x8, addend: 0x0, symName: __ZNSt3__14endlB8ue170006IcNS_11char_traitsIcEEEERNS_13basic_ostreamIT_T0_EES7_, symObjAddr: 0xC70, symBinAddr: 0x1000015A8, symSize: 0x58 }
  - { offsetInCU: 0x8A34, offset: 0x8A34, size: 0x8, addend: 0x0, symName: __ZNSt3__1lsB8ue170006INS_11char_traitsIcEEEERNS_13basic_ostreamIcT_EES6_c, symObjAddr: 0xE74, symBinAddr: 0x1000017AC, symSize: 0x34 }
  - { offsetInCU: 0x8A7A, offset: 0x8A7A, size: 0x8, addend: 0x0, symName: __ZNSt3__119__allocate_at_leastB8ue170006INS_9allocatorImEEEENS_19__allocation_resultINS_16allocator_traitsIT_E7pointerEEERS5_m, symObjAddr: 0x1344, symBinAddr: 0x100001C7C, symSize: 0x40 }
  - { offsetInCU: 0x8CBF, offset: 0x8CBF, size: 0x8, addend: 0x0, symName: __ZNSt3__120__throw_length_errorB8ue170006EPKc, symObjAddr: 0x14C4, symBinAddr: 0x100001DFC, symSize: 0x64 }
  - { offsetInCU: 0x8CE9, offset: 0x8CE9, size: 0x8, addend: 0x0, symName: __ZNSt3__117__libcpp_allocateB8ue170006Emm, symObjAddr: 0x1634, symBinAddr: 0x100001F6C, symSize: 0x28 }
  - { offsetInCU: 0x8D26, offset: 0x8D26, size: 0x8, addend: 0x0, symName: __ZNSt3__121__libcpp_operator_newB8ue170006IJmEEEPvDpT_, symObjAddr: 0x165C, symBinAddr: 0x100001F94, symSize: 0x24 }
  - { offsetInCU: 0x8D5F, offset: 0x8D5F, size: 0x8, addend: 0x0, symName: __ZNSt3__16fill_nB8ue170006INS_6vectorIbNS_9allocatorIbEEEEEEvNS_14__bit_iteratorIT_Lb0EXLi0EEEENS6_9size_typeEb, symObjAddr: 0x16F0, symBinAddr: 0x100002028, symSize: 0x94 }
  - { offsetInCU: 0x8DB1, offset: 0x8DB1, size: 0x8, addend: 0x0, symName: __ZNSt3__13minB8ue170006ImEERKT_S3_S3_, symObjAddr: 0x1AD8, symBinAddr: 0x100002410, symSize: 0x2C }
  - { offsetInCU: 0x8DF4, offset: 0x8DF4, size: 0x8, addend: 0x0, symName: __ZNSt3__16fill_nB8ue170006IPmmmEET_S2_T0_RKT1_, symObjAddr: 0x1B04, symBinAddr: 0x10000243C, symSize: 0x44 }
  - { offsetInCU: 0x8E57, offset: 0x8E57, size: 0x8, addend: 0x0, symName: __ZNSt3__112__to_addressB8ue170006ImEEPT_S2_, symObjAddr: 0x1B48, symBinAddr: 0x100002480, symSize: 0x14 }
  - { offsetInCU: 0x8E8C, offset: 0x8E8C, size: 0x8, addend: 0x0, symName: __ZNSt3__13minB8ue170006ImNS_6__lessIvvEEEERKT_S5_S5_T0_, symObjAddr: 0x1B5C, symBinAddr: 0x100002494, symSize: 0x54 }
  - { offsetInCU: 0x8F2B, offset: 0x8F2B, size: 0x8, addend: 0x0, symName: __ZNSt3__18__fill_nB8ue170006IPmmmEET_S2_T0_RKT1_, symObjAddr: 0x1BE4, symBinAddr: 0x10000251C, symSize: 0x64 }
  - { offsetInCU: 0x8F8E, offset: 0x8F8E, size: 0x8, addend: 0x0, symName: __ZNSt3__121__convert_to_integralB8ue170006Em, symObjAddr: 0x1C48, symBinAddr: 0x100002580, symSize: 0x14 }
  - { offsetInCU: 0x8FBA, offset: 0x8FBA, size: 0x8, addend: 0x0, symName: __ZNSt3__16fill_nB8ue170006IPmmiEET_S2_T0_RKT1_, symObjAddr: 0x1C8C, symBinAddr: 0x1000025C4, symSize: 0x44 }
  - { offsetInCU: 0x901D, offset: 0x901D, size: 0x8, addend: 0x0, symName: __ZNSt3__18__fill_nB8ue170006IPmmiEET_S2_T0_RKT1_, symObjAddr: 0x1CD0, symBinAddr: 0x100002608, symSize: 0x64 }
  - { offsetInCU: 0x9080, offset: 0x9080, size: 0x8, addend: 0x0, symName: __ZNSt3__119__libcpp_deallocateB8ue170006EPvmm, symObjAddr: 0x1F30, symBinAddr: 0x100002868, symSize: 0x30 }
  - { offsetInCU: 0x90C8, offset: 0x90C8, size: 0x8, addend: 0x0, symName: __ZNSt3__127__do_deallocate_handle_sizeB8ue170006IJEEEvPvmDpT_, symObjAddr: 0x1F60, symBinAddr: 0x100002898, symSize: 0x28 }
  - { offsetInCU: 0x9106, offset: 0x9106, size: 0x8, addend: 0x0, symName: __ZNSt3__124__libcpp_operator_deleteB8ue170006IJPvEEEvDpT_, symObjAddr: 0x1F88, symBinAddr: 0x1000028C0, symSize: 0x24 }
  - { offsetInCU: 0x913B, offset: 0x913B, size: 0x8, addend: 0x0, symName: __ZNSt3__122__make_exception_guardB8ue170006INS_6vectorINS1_IbNS_9allocatorIbEEEENS2_IS4_EEE16__destroy_vectorEEENS_28__exception_guard_exceptionsIT_EES9_, symObjAddr: 0x20C4, symBinAddr: 0x1000029FC, symSize: 0x40 }
  - { offsetInCU: 0x9170, offset: 0x9170, size: 0x8, addend: 0x0, symName: __ZNSt3__119__allocate_at_leastB8ue170006INS_9allocatorINS_6vectorIbNS1_IbEEEEEEEENS_19__allocation_resultINS_16allocator_traitsIT_E7pointerEEERS8_m, symObjAddr: 0x24C0, symBinAddr: 0x100002DF8, symSize: 0x40 }
  - { offsetInCU: 0x93B4, offset: 0x93B4, size: 0x8, addend: 0x0, symName: __ZNSt3__112__to_addressB8ue170006INS_6vectorIbNS_9allocatorIbEEEEEEPT_S6_, symObjAddr: 0x2824, symBinAddr: 0x10000315C, symSize: 0x14 }
  - { offsetInCU: 0x93E9, offset: 0x93E9, size: 0x8, addend: 0x0, symName: __ZNSt3__16__copyB8ue170006INS_17_ClassicAlgPolicyENS_14__bit_iteratorINS_6vectorIbNS_9allocatorIbEEEELb1ELm0EEES7_NS2_IS6_Lb0ELm0EEEEENS_4pairIT0_T2_EESA_T1_SB_, symObjAddr: 0x2CFC, symBinAddr: 0x100003634, symSize: 0x7C }
  - { offsetInCU: 0x9456, offset: 0x9456, size: 0x8, addend: 0x0, symName: __ZNSt3__123__dispatch_copy_or_moveB8ue170006INS_17_ClassicAlgPolicyENS_11__copy_loopIS1_EENS_14__copy_trivialENS_14__bit_iteratorINS_6vectorIbNS_9allocatorIbEEEELb1ELm0EEESA_NS5_IS9_Lb0ELm0EEEEENS_4pairIT2_T4_EESD_T3_SE_, symObjAddr: 0x2D78, symBinAddr: 0x1000036B0, symSize: 0x7C }
  - { offsetInCU: 0x94D5, offset: 0x94D5, size: 0x8, addend: 0x0, symName: __ZNSt3__121__unwrap_and_dispatchB8ue170006INS_10__overloadINS_11__copy_loopINS_17_ClassicAlgPolicyEEENS_14__copy_trivialEEENS_14__bit_iteratorINS_6vectorIbNS_9allocatorIbEEEELb1ELm0EEESC_NS7_ISB_Lb0ELm0EEELi0EEENS_4pairIT0_T2_EESF_T1_SG_, symObjAddr: 0x2DF4, symBinAddr: 0x10000372C, symSize: 0x150 }
  - { offsetInCU: 0x9566, offset: 0x9566, size: 0x8, addend: 0x0, symName: __ZNSt3__114__unwrap_rangeB8ue170006INS_14__bit_iteratorINS_6vectorIbNS_9allocatorIbEEEELb1ELm0EEES6_EENS_4pairIT0_S8_EET_SA_, symObjAddr: 0x2F44, symBinAddr: 0x10000387C, symSize: 0x84 }
  - { offsetInCU: 0x9720, offset: 0x9720, size: 0x8, addend: 0x0, symName: __ZNSt3__113__unwrap_iterB8ue170006INS_14__bit_iteratorINS_6vectorIbNS_9allocatorIbEEEELb0ELm0EEENS_18__unwrap_iter_implIS6_Lb0EEELi0EEEDTclsrT0_8__unwrapclsr3stdE7declvalIT_EEEESA_, symObjAddr: 0x308C, symBinAddr: 0x1000039C4, symSize: 0x44 }
  - { offsetInCU: 0x9765, offset: 0x9765, size: 0x8, addend: 0x0, symName: __ZNSt3__19make_pairB8ue170006INS_14__bit_iteratorINS_6vectorIbNS_9allocatorIbEEEELb1ELm0EEENS1_IS5_Lb0ELm0EEEEENS_4pairINS_18__unwrap_ref_decayIT_E4typeENS9_IT0_E4typeEEEOSA_OSD_, symObjAddr: 0x30D0, symBinAddr: 0x100003A08, symSize: 0x40 }
  - { offsetInCU: 0x97B4, offset: 0x97B4, size: 0x8, addend: 0x0, symName: __ZNSt3__114__rewrap_rangeB8ue170006INS_14__bit_iteratorINS_6vectorIbNS_9allocatorIbEEEELb1ELm0EEES6_EET_S7_T0_, symObjAddr: 0x3110, symBinAddr: 0x100003A48, symSize: 0x5C }
  - { offsetInCU: 0x9800, offset: 0x9800, size: 0x8, addend: 0x0, symName: __ZNSt3__113__rewrap_iterB8ue170006INS_14__bit_iteratorINS_6vectorIbNS_9allocatorIbEEEELb0ELm0EEES6_NS_18__unwrap_iter_implIS6_Lb0EEEEET_S9_T0_, symObjAddr: 0x316C, symBinAddr: 0x100003AA4, symSize: 0x74 }
  - { offsetInCU: 0x9857, offset: 0x9857, size: 0x8, addend: 0x0, symName: __ZNSt3__19make_pairB8ue170006INS_14__bit_iteratorINS_6vectorIbNS_9allocatorIbEEEELb1ELm0EEES6_EENS_4pairINS_18__unwrap_ref_decayIT_E4typeENS8_IT0_E4typeEEEOS9_OSC_, symObjAddr: 0x31E0, symBinAddr: 0x100003B18, symSize: 0x38 }
  - { offsetInCU: 0x98A6, offset: 0x98A6, size: 0x8, addend: 0x0, symName: __ZNSt3__113__unwrap_iterB8ue170006INS_14__bit_iteratorINS_6vectorIbNS_9allocatorIbEEEELb1ELm0EEENS_18__unwrap_iter_implIS6_Lb0EEELi0EEEDTclsrT0_8__unwrapclsr3stdE7declvalIT_EEEESA_, symObjAddr: 0x3218, symBinAddr: 0x100003B50, symSize: 0x44 }
  - { offsetInCU: 0x9A06, offset: 0x9A06, size: 0x8, addend: 0x0, symName: __ZNSt3__1neB8ue170006ERKNS_14__bit_iteratorINS_6vectorIbNS_9allocatorIbEEEELb1ELm0EEES7_, symObjAddr: 0x32F0, symBinAddr: 0x100003C28, symSize: 0x34 }
  - { offsetInCU: 0x9A43, offset: 0x9A43, size: 0x8, addend: 0x0, symName: __ZNSt3__1eqB8ue170006ERKNS_14__bit_iteratorINS_6vectorIbNS_9allocatorIbEEEELb1ELm0EEES7_, symObjAddr: 0x3464, symBinAddr: 0x100003D9C, symSize: 0x64 }
  - { offsetInCU: 0x9AC8, offset: 0x9AC8, size: 0x8, addend: 0x0, symName: __ZNSt3__113__rewrap_iterB8ue170006INS_14__bit_iteratorINS_6vectorIbNS_9allocatorIbEEEELb1ELm0EEES6_NS_18__unwrap_iter_implIS6_Lb0EEEEET_S9_T0_, symObjAddr: 0x35EC, symBinAddr: 0x100003F24, symSize: 0x74 }
  - { offsetInCU: 0x9B1D, offset: 0x9B1D, size: 0x8, addend: 0x0, symName: __ZNSt3__16__copyB8ue170006INS_17_ClassicAlgPolicyEPKbS3_NS_14__bit_iteratorINS_6vectorIbNS_9allocatorIbEEEELb0ELm0EEEEENS_4pairIT0_T2_EESB_T1_SC_, symObjAddr: 0x3DA0, symBinAddr: 0x1000046D8, symSize: 0x6C }
  - { offsetInCU: 0x9B8A, offset: 0x9B8A, size: 0x8, addend: 0x0, symName: __ZNSt3__123__dispatch_copy_or_moveB8ue170006INS_17_ClassicAlgPolicyENS_11__copy_loopIS1_EENS_14__copy_trivialEPKbS6_NS_14__bit_iteratorINS_6vectorIbNS_9allocatorIbEEEELb0ELm0EEEEENS_4pairIT2_T4_EESE_T3_SF_, symObjAddr: 0x3E0C, symBinAddr: 0x100004744, symSize: 0x6C }
  - { offsetInCU: 0x9C09, offset: 0x9C09, size: 0x8, addend: 0x0, symName: __ZNSt3__121__unwrap_and_dispatchB8ue170006INS_10__overloadINS_11__copy_loopINS_17_ClassicAlgPolicyEEENS_14__copy_trivialEEEPKbS8_NS_14__bit_iteratorINS_6vectorIbNS_9allocatorIbEEEELb0ELm0EEELi0EEENS_4pairIT0_T2_EESG_T1_SH_, symObjAddr: 0x3E78, symBinAddr: 0x1000047B0, symSize: 0xFC }
  - { offsetInCU: 0x9C99, offset: 0x9C99, size: 0x8, addend: 0x0, symName: __ZNSt3__114__unwrap_rangeB8ue170006IPKbS2_EENS_4pairIT0_S4_EET_S6_, symObjAddr: 0x3F74, symBinAddr: 0x1000048AC, symSize: 0x60 }
  - { offsetInCU: 0x9DB9, offset: 0x9DB9, size: 0x8, addend: 0x0, symName: __ZNSt3__19make_pairB8ue170006IPKbNS_14__bit_iteratorINS_6vectorIbNS_9allocatorIbEEEELb0ELm0EEEEENS_4pairINS_18__unwrap_ref_decayIT_E4typeENSA_IT0_E4typeEEEOSB_OSE_, symObjAddr: 0x407C, symBinAddr: 0x1000049B4, symSize: 0x40 }
  - { offsetInCU: 0x9E08, offset: 0x9E08, size: 0x8, addend: 0x0, symName: __ZNSt3__114__rewrap_rangeB8ue170006IPKbS2_EET_S3_T0_, symObjAddr: 0x40BC, symBinAddr: 0x1000049F4, symSize: 0x2C }
  - { offsetInCU: 0x9E54, offset: 0x9E54, size: 0x8, addend: 0x0, symName: __ZNSt3__19make_pairB8ue170006IPKbS2_EENS_4pairINS_18__unwrap_ref_decayIT_E4typeENS4_IT0_E4typeEEEOS5_OS8_, symObjAddr: 0x40E8, symBinAddr: 0x100004A20, symSize: 0x38 }
  - { offsetInCU: 0x9EA3, offset: 0x9EA3, size: 0x8, addend: 0x0, symName: __ZNSt3__113__unwrap_iterB8ue170006IPKbNS_18__unwrap_iter_implIS2_Lb1EEELi0EEEDTclsrT0_8__unwrapclsr3stdE7declvalIT_EEEES6_, symObjAddr: 0x4120, symBinAddr: 0x100004A58, symSize: 0x24 }
  - { offsetInCU: 0xA00E, offset: 0xA00E, size: 0x8, addend: 0x0, symName: __ZNSt3__112__to_addressB8ue170006IKbEEPT_S3_, symObjAddr: 0x41D8, symBinAddr: 0x100004B10, symSize: 0x14 }
  - { offsetInCU: 0xA043, offset: 0xA043, size: 0x8, addend: 0x0, symName: __ZNSt3__113__rewrap_iterB8ue170006IPKbS2_NS_18__unwrap_iter_implIS2_Lb1EEEEET_S5_T0_, symObjAddr: 0x4270, symBinAddr: 0x100004BA8, symSize: 0x3C }
  - { offsetInCU: 0xA098, offset: 0xA098, size: 0x8, addend: 0x0, symName: __ZNSt3__130__uninitialized_allocator_copyB8ue170006INS_9allocatorINS_6vectorIbNS1_IbEEEEEEPKS4_S7_PS4_EET2_RT_T0_T1_S9_, symObjAddr: 0x44F8, symBinAddr: 0x100004E30, symSize: 0x80 }
  - { offsetInCU: 0xA135, offset: 0xA135, size: 0x8, addend: 0x0, symName: __ZNSt3__114__unwrap_rangeB8ue170006IPKNS_6vectorIbNS_9allocatorIbEEEES6_EENS_4pairIT0_S8_EET_SA_, symObjAddr: 0x4578, symBinAddr: 0x100004EB0, symSize: 0x60 }
  - { offsetInCU: 0xA181, offset: 0xA181, size: 0x8, addend: 0x0, symName: __ZNSt3__135__uninitialized_allocator_copy_implB8ue170006INS_9allocatorINS_6vectorIbNS1_IbEEEEEEPKS4_S7_PS4_EET2_RT_T0_T1_S9_, symObjAddr: 0x45D8, symBinAddr: 0x100004F10, symSize: 0xF4 }
  - { offsetInCU: 0xA21F, offset: 0xA21F, size: 0x8, addend: 0x0, symName: __ZNSt3__113__unwrap_iterB8ue170006IPNS_6vectorIbNS_9allocatorIbEEEENS_18__unwrap_iter_implIS5_Lb1EEELi0EEEDTclsrT0_8__unwrapclsr3stdE7declvalIT_EEEES9_, symObjAddr: 0x46CC, symBinAddr: 0x100005004, symSize: 0x24 }
  - { offsetInCU: 0xA263, offset: 0xA263, size: 0x8, addend: 0x0, symName: __ZNSt3__113__rewrap_iterB8ue170006IPNS_6vectorIbNS_9allocatorIbEEEES5_NS_18__unwrap_iter_implIS5_Lb1EEEEET_S8_T0_, symObjAddr: 0x46F0, symBinAddr: 0x100005028, symSize: 0x3C }
  - { offsetInCU: 0xA2B8, offset: 0xA2B8, size: 0x8, addend: 0x0, symName: __ZNSt3__19make_pairB8ue170006IPKNS_6vectorIbNS_9allocatorIbEEEES6_EENS_4pairINS_18__unwrap_ref_decayIT_E4typeENS8_IT0_E4typeEEEOS9_OSC_, symObjAddr: 0x472C, symBinAddr: 0x100005064, symSize: 0x38 }
  - { offsetInCU: 0xA307, offset: 0xA307, size: 0x8, addend: 0x0, symName: __ZNSt3__113__unwrap_iterB8ue170006IPKNS_6vectorIbNS_9allocatorIbEEEENS_18__unwrap_iter_implIS6_Lb1EEELi0EEEDTclsrT0_8__unwrapclsr3stdE7declvalIT_EEEESA_, symObjAddr: 0x4764, symBinAddr: 0x10000509C, symSize: 0x24 }
  - { offsetInCU: 0xA472, offset: 0xA472, size: 0x8, addend: 0x0, symName: __ZNSt3__112__to_addressB8ue170006IKNS_6vectorIbNS_9allocatorIbEEEEEEPT_S7_, symObjAddr: 0x481C, symBinAddr: 0x100005154, symSize: 0x14 }
  - { offsetInCU: 0xA4A7, offset: 0xA4A7, size: 0x8, addend: 0x0, symName: __ZNSt3__122__make_exception_guardB8ue170006INS_29_AllocatorDestroyRangeReverseINS_9allocatorINS_6vectorIbNS2_IbEEEEEEPS5_EEEENS_28__exception_guard_exceptionsIT_EESA_, symObjAddr: 0x4830, symBinAddr: 0x100005168, symSize: 0x4C }
  - { offsetInCU: 0xA4DD, offset: 0xA4DD, size: 0x8, addend: 0x0, symName: __ZNSt3__119__allocator_destroyB8ue170006INS_9allocatorINS_6vectorIbNS1_IbEEEEEENS_16reverse_iteratorIPS4_EES8_EEvRT_T0_T1_, symObjAddr: 0x4A5C, symBinAddr: 0x100005394, symSize: 0x70 }
  - { offsetInCU: 0xA540, offset: 0xA540, size: 0x8, addend: 0x0, symName: __ZNSt3__1neB8ue170006IPNS_6vectorIbNS_9allocatorIbEEEES5_EEbRKNS_16reverse_iteratorIT_EERKNS6_IT0_EE, symObjAddr: 0x4B00, symBinAddr: 0x100005438, symSize: 0x48 }
  - { offsetInCU: 0xA58C, offset: 0xA58C, size: 0x8, addend: 0x0, symName: __ZNSt3__112__to_addressB8ue170006INS_16reverse_iteratorIPNS_6vectorIbNS_9allocatorIbEEEEEEvEEu7__decayIDTclsr19__to_address_helperIT_EE6__callclsr3stdE7declvalIRKS8_EEEEESA_, symObjAddr: 0x4B48, symBinAddr: 0x100005480, symSize: 0x24 }
  - { offsetInCU: 0xA63E, offset: 0xA63E, size: 0x8, addend: 0x0, symName: __ZNSt3__122__make_exception_guardB8ue170006INS_6vectorIiNS_9allocatorIiEEE16__destroy_vectorEEENS_28__exception_guard_exceptionsIT_EES7_, symObjAddr: 0x4E28, symBinAddr: 0x100005760, symSize: 0x40 }
  - { offsetInCU: 0xA673, offset: 0xA673, size: 0x8, addend: 0x0, symName: __ZNSt3__119__allocate_at_leastB8ue170006INS_9allocatorIiEEEENS_19__allocation_resultINS_16allocator_traitsIT_E7pointerEEERS5_m, symObjAddr: 0x5228, symBinAddr: 0x100005B60, symSize: 0x40 }
  - { offsetInCU: 0xA6B6, offset: 0xA6B6, size: 0x8, addend: 0x0, symName: __ZNSt3__112__to_addressB8ue170006IiEEPT_S2_, symObjAddr: 0x554C, symBinAddr: 0x100005E84, symSize: 0x14 }
  - { offsetInCU: 0xA6EB, offset: 0xA6EB, size: 0x8, addend: 0x0, symName: __ZNSt3__130__uninitialized_allocator_copyB8ue170006INS_9allocatorIiEEPKiS4_PiEET2_RT_T0_T1_S6_, symObjAddr: 0x55FC, symBinAddr: 0x100005F34, symSize: 0x80 }
  - { offsetInCU: 0xA788, offset: 0xA788, size: 0x8, addend: 0x0, symName: __ZNSt3__114__unwrap_rangeB8ue170006IPKiS2_EENS_4pairIT0_S4_EET_S6_, symObjAddr: 0x56EC, symBinAddr: 0x100006024, symSize: 0x60 }
  - { offsetInCU: 0xA7D4, offset: 0xA7D4, size: 0x8, addend: 0x0, symName: __ZNSt3__135__uninitialized_allocator_copy_implB8ue170006INS_9allocatorIiEEKiiiLPv0EEEPT2_RT_PT0_SA_S6_, symObjAddr: 0x574C, symBinAddr: 0x100006084, symSize: 0x38 }
  - { offsetInCU: 0xA855, offset: 0xA855, size: 0x8, addend: 0x0, symName: __ZNSt3__113__unwrap_iterB8ue170006IPiNS_18__unwrap_iter_implIS1_Lb1EEELi0EEEDTclsrT0_8__unwrapclsr3stdE7declvalIT_EEEES5_, symObjAddr: 0x5784, symBinAddr: 0x1000060BC, symSize: 0x24 }
  - { offsetInCU: 0xA899, offset: 0xA899, size: 0x8, addend: 0x0, symName: __ZNSt3__113__rewrap_iterB8ue170006IPiS1_NS_18__unwrap_iter_implIS1_Lb1EEEEET_S4_T0_, symObjAddr: 0x57A8, symBinAddr: 0x1000060E0, symSize: 0x3C }
  - { offsetInCU: 0xA8EE, offset: 0xA8EE, size: 0x8, addend: 0x0, symName: __ZNSt3__19make_pairB8ue170006IPKiS2_EENS_4pairINS_18__unwrap_ref_decayIT_E4typeENS4_IT0_E4typeEEEOS5_OS8_, symObjAddr: 0x57E4, symBinAddr: 0x10000611C, symSize: 0x38 }
  - { offsetInCU: 0xA93D, offset: 0xA93D, size: 0x8, addend: 0x0, symName: __ZNSt3__113__unwrap_iterB8ue170006IPKiNS_18__unwrap_iter_implIS2_Lb1EEELi0EEEDTclsrT0_8__unwrapclsr3stdE7declvalIT_EEEES6_, symObjAddr: 0x581C, symBinAddr: 0x100006154, symSize: 0x24 }
  - { offsetInCU: 0xAAA8, offset: 0xAAA8, size: 0x8, addend: 0x0, symName: __ZNSt3__112__to_addressB8ue170006IKiEEPT_S3_, symObjAddr: 0x58D4, symBinAddr: 0x10000620C, symSize: 0x14 }
  - { offsetInCU: 0xAADD, offset: 0xAADD, size: 0x8, addend: 0x0, symName: __ZNSt3__14copyB8ue170006IPKiPiEET0_T_S5_S4_, symObjAddr: 0x58E8, symBinAddr: 0x100006220, symSize: 0x40 }
  - { offsetInCU: 0xAB37, offset: 0xAB37, size: 0x8, addend: 0x0, symName: __ZNSt3__16__copyB8ue170006INS_17_ClassicAlgPolicyEPKiS3_PiEENS_4pairIT0_T2_EES6_T1_S7_, symObjAddr: 0x5928, symBinAddr: 0x100006260, symSize: 0x44 }
  - { offsetInCU: 0xABA3, offset: 0xABA3, size: 0x8, addend: 0x0, symName: __ZNSt3__123__dispatch_copy_or_moveB8ue170006INS_17_ClassicAlgPolicyENS_11__copy_loopIS1_EENS_14__copy_trivialEPKiS6_PiEENS_4pairIT2_T4_EES9_T3_SA_, symObjAddr: 0x596C, symBinAddr: 0x1000062A4, symSize: 0x44 }
  - { offsetInCU: 0xAC21, offset: 0xAC21, size: 0x8, addend: 0x0, symName: __ZNSt3__121__unwrap_and_dispatchB8ue170006INS_10__overloadINS_11__copy_loopINS_17_ClassicAlgPolicyEEENS_14__copy_trivialEEEPKiS8_PiLi0EEENS_4pairIT0_T2_EESB_T1_SC_, symObjAddr: 0x59B0, symBinAddr: 0x1000062E8, symSize: 0xB4 }
  - { offsetInCU: 0xADF8, offset: 0xADF8, size: 0x8, addend: 0x0, symName: __ZNSt3__19make_pairB8ue170006IPKiPiEENS_4pairINS_18__unwrap_ref_decayIT_E4typeENS5_IT0_E4typeEEEOS6_OS9_, symObjAddr: 0x5AAC, symBinAddr: 0x1000063E4, symSize: 0x38 }
  - { offsetInCU: 0xAE47, offset: 0xAE47, size: 0x8, addend: 0x0, symName: __ZNSt3__114__rewrap_rangeB8ue170006IPKiS2_EET_S3_T0_, symObjAddr: 0x5AE4, symBinAddr: 0x10000641C, symSize: 0x2C }
  - { offsetInCU: 0xAE93, offset: 0xAE93, size: 0x8, addend: 0x0, symName: __ZNSt3__119__copy_trivial_implB8ue170006IKiiEENS_4pairIPT_PT0_EES4_S4_S6_, symObjAddr: 0x5B10, symBinAddr: 0x100006448, symSize: 0x80 }
  - { offsetInCU: 0xAEFB, offset: 0xAEFB, size: 0x8, addend: 0x0, symName: __ZNSt3__119__constexpr_memmoveB8ue170006IiKiLi0EEEPT_S3_PT0_NS_15__element_countE, symObjAddr: 0x5B90, symBinAddr: 0x1000064C8, symSize: 0x64 }
  - { offsetInCU: 0xAF69, offset: 0xAF69, size: 0x8, addend: 0x0, symName: __ZNSt3__19make_pairB8ue170006IRPKiPiEENS_4pairINS_18__unwrap_ref_decayIT_E4typeENS6_IT0_E4typeEEEOS7_OSA_, symObjAddr: 0x5BF4, symBinAddr: 0x10000652C, symSize: 0x38 }
  - { offsetInCU: 0xAFB8, offset: 0xAFB8, size: 0x8, addend: 0x0, symName: __ZNSt3__113__rewrap_iterB8ue170006IPKiS2_NS_18__unwrap_iter_implIS2_Lb1EEEEET_S5_T0_, symObjAddr: 0x5D0C, symBinAddr: 0x100006644, symSize: 0x3C }
  - { offsetInCU: 0xB060, offset: 0xB060, size: 0x8, addend: 0x0, symName: __ZNSt3__116__pad_and_outputB8ue170006IcNS_11char_traitsIcEEEENS_19ostreambuf_iteratorIT_T0_EES6_PKS4_S8_S8_RNS_8ios_baseES4_, symObjAddr: 0x63D0, symBinAddr: 0x100006D08, symSize: 0x240 }
  - { offsetInCU: 0xB12F, offset: 0xB12F, size: 0x8, addend: 0x0, symName: __ZNSt3__112__to_addressB8ue170006IKcEEPT_S3_, symObjAddr: 0x6938, symBinAddr: 0x100007270, symSize: 0x14 }
  - { offsetInCU: 0xB197, offset: 0xB197, size: 0x8, addend: 0x0, symName: __ZNSt3__19use_facetB8ue170006INS_5ctypeIcEEEERKT_RKNS_6localeE, symObjAddr: 0x6BB8, symBinAddr: 0x1000074F0, symSize: 0x2C }
  - { offsetInCU: 0xB664, offset: 0xB664, size: 0x8, addend: 0x0, symName: __ZNSt3__118__constexpr_strlenB8ue170006EPKc, symObjAddr: 0x6C50, symBinAddr: 0x100007588, symSize: 0x24 }
  - { offsetInCU: 0xBAFC, offset: 0xBAFC, size: 0x8, addend: 0x0, symName: __ZSt28__throw_bad_array_new_lengthB8ue170006v, symObjAddr: 0x1600, symBinAddr: 0x100001F38, symSize: 0x34 }
  - { offsetInCU: 0xE5BB, offset: 0xE5BB, size: 0x8, addend: 0x0, symName: __Z4pathiRKNSt3__16vectorINS0_IbNS_9allocatorIbEEEENS1_IS3_EEEE, symObjAddr: 0x0, symBinAddr: 0x100000938, symSize: 0x15C }
  - { offsetInCU: 0xE612, offset: 0xE612, size: 0x8, addend: 0x0, symName: __ZNKSt3__16vectorINS0_IbNS_9allocatorIbEEEENS1_IS3_EEEixB8ue170006Em, symObjAddr: 0x15C, symBinAddr: 0x100000A94, symSize: 0x2C }
  - { offsetInCU: 0xE649, offset: 0xE649, size: 0x8, addend: 0x0, symName: __ZNKSt3__16vectorIbNS_9allocatorIbEEEixB8ue170006Em, symObjAddr: 0x188, symBinAddr: 0x100000AC0, symSize: 0x3C }
  - { offsetInCU: 0xE67E, offset: 0xE67E, size: 0x8, addend: 0x0, symName: __ZNKSt3__121__bit_const_referenceINS_6vectorIbNS_9allocatorIbEEEEEcvbB8ue170006Ev, symObjAddr: 0x1C4, symBinAddr: 0x100000AFC, symSize: 0x2C }
  - { offsetInCU: 0xE6A3, offset: 0xE6A3, size: 0x8, addend: 0x0, symName: __Z8maxMatchRKNSt3__16vectorINS0_IbNS_9allocatorIbEEEENS1_IS3_EEEE, symObjAddr: 0x1F0, symBinAddr: 0x100000B28, symSize: 0xD8 }
  - { offsetInCU: 0xE6F9, offset: 0xE6F9, size: 0x8, addend: 0x0, symName: __Z8ReadDatav, symObjAddr: 0x2C8, symBinAddr: 0x100000C00, symSize: 0x1B0 }
  - { offsetInCU: 0xE781, offset: 0xE781, size: 0x8, addend: 0x0, symName: __ZNSt3__16vectorIbNS_9allocatorIbEEEC1Em, symObjAddr: 0x478, symBinAddr: 0x100000DB0, symSize: 0x34 }
  - { offsetInCU: 0xE7BC, offset: 0xE7BC, size: 0x8, addend: 0x0, symName: __ZNSt3__16vectorINS0_IbNS_9allocatorIbEEEENS1_IS3_EEEC1EmRKS3_, symObjAddr: 0x4AC, symBinAddr: 0x100000DE4, symSize: 0x3C }
  - { offsetInCU: 0xE806, offset: 0xE806, size: 0x8, addend: 0x0, symName: __ZNSt3__16vectorIbNS_9allocatorIbEEED1B8ue170006Ev, symObjAddr: 0x4E8, symBinAddr: 0x100000E20, symSize: 0x2C }
  - { offsetInCU: 0xE830, offset: 0xE830, size: 0x8, addend: 0x0, symName: __ZNSt3__16vectorINS0_IbNS_9allocatorIbEEEENS1_IS3_EEEixB8ue170006Em, symObjAddr: 0x514, symBinAddr: 0x100000E4C, symSize: 0x2C }
  - { offsetInCU: 0xE867, offset: 0xE867, size: 0x8, addend: 0x0, symName: __ZNSt3__16vectorIbNS_9allocatorIbEEEixB8ue170006Em, symObjAddr: 0x540, symBinAddr: 0x100000E78, symSize: 0x3C }
  - { offsetInCU: 0xE89C, offset: 0xE89C, size: 0x8, addend: 0x0, symName: __ZNSt3__115__bit_referenceINS_6vectorIbNS_9allocatorIbEEEELb1EEaSB8ue170006Eb, symObjAddr: 0x57C, symBinAddr: 0x100000EB4, symSize: 0x6C }
  - { offsetInCU: 0xE8D0, offset: 0xE8D0, size: 0x8, addend: 0x0, symName: __ZNSt3__16vectorINS0_IbNS_9allocatorIbEEEENS1_IS3_EEED1B8ue170006Ev, symObjAddr: 0x5E8, symBinAddr: 0x100000F20, symSize: 0x2C }
  - { offsetInCU: 0xE8FA, offset: 0xE8FA, size: 0x8, addend: 0x0, symName: __Z13test_maxMatchv, symObjAddr: 0x614, symBinAddr: 0x100000F4C, symSize: 0x4D0 }
  - { offsetInCU: 0xE957, offset: 0xE957, size: 0x8, addend: 0x0, symName: __ZNSt3__16vectorIbNS_9allocatorIbEEEC1ESt16initializer_listIbE, symObjAddr: 0xAE4, symBinAddr: 0x10000141C, symSize: 0x3C }
  - { offsetInCU: 0xE992, offset: 0xE992, size: 0x8, addend: 0x0, symName: __ZNSt3__16vectorINS0_IbNS_9allocatorIbEEEENS1_IS3_EEEC1B8ue170006ESt16initializer_listIS3_E, symObjAddr: 0xB20, symBinAddr: 0x100001458, symSize: 0x3C }
  - { offsetInCU: 0xE9CD, offset: 0xE9CD, size: 0x8, addend: 0x0, symName: __ZNKSt3__16vectorINS0_IbNS_9allocatorIbEEEENS1_IS3_EEE4sizeB8ue170006Ev, symObjAddr: 0xB5C, symBinAddr: 0x100001494, symSize: 0x28 }
  - { offsetInCU: 0xE9F3, offset: 0xE9F3, size: 0x8, addend: 0x0, symName: __ZNKSt3__16vectorIbNS_9allocatorIbEEE4sizeB8ue170006Ev, symObjAddr: 0xB84, symBinAddr: 0x1000014BC, symSize: 0x18 }
  - { offsetInCU: 0xEA19, offset: 0xEA19, size: 0x8, addend: 0x0, symName: __ZNSt3__16vectorIiNS_9allocatorIiEEEC1B8ue170006ESt16initializer_listIiE, symObjAddr: 0xB9C, symBinAddr: 0x1000014D4, symSize: 0x3C }
  - { offsetInCU: 0xEA54, offset: 0xEA54, size: 0x8, addend: 0x0, symName: __ZNSt3__16vectorIiNS_9allocatorIiEEEixB8ue170006Em, symObjAddr: 0xBD8, symBinAddr: 0x100001510, symSize: 0x24 }
  - { offsetInCU: 0xEA8B, offset: 0xEA8B, size: 0x8, addend: 0x0, symName: __ZNSt3__113basic_ostreamIcNS_11char_traitsIcEEElsB8ue170006EPFRS3_S4_E, symObjAddr: 0xC44, symBinAddr: 0x10000157C, symSize: 0x2C }
  - { offsetInCU: 0xEABF, offset: 0xEABF, size: 0x8, addend: 0x0, symName: __ZNSt3__16vectorIiNS_9allocatorIiEEED1B8ue170006Ev, symObjAddr: 0xCC8, symBinAddr: 0x100001600, symSize: 0x2C }
  - { offsetInCU: 0xEAE9, offset: 0xEAE9, size: 0x8, addend: 0x0, symName: _main, symObjAddr: 0xCF4, symBinAddr: 0x10000162C, symSize: 0x180 }
  - { offsetInCU: 0xEB34, offset: 0xEB34, size: 0x8, addend: 0x0, symName: __ZNKSt3__16vectorIbNS_9allocatorIbEEE10__make_refB8ue170006Em, symObjAddr: 0xEA8, symBinAddr: 0x1000017E0, symSize: 0x60 }
  - { offsetInCU: 0xEB69, offset: 0xEB69, size: 0x8, addend: 0x0, symName: __ZNSt3__121__bit_const_referenceINS_6vectorIbNS_9allocatorIbEEEEEC1B8ue170006EPKmm, symObjAddr: 0xF08, symBinAddr: 0x100001840, symSize: 0x3C }
  - { offsetInCU: 0xEBAF, offset: 0xEBAF, size: 0x8, addend: 0x0, symName: __ZNSt3__121__bit_const_referenceINS_6vectorIbNS_9allocatorIbEEEEEC2B8ue170006EPKmm, symObjAddr: 0xF44, symBinAddr: 0x10000187C, symSize: 0x2C }
  - { offsetInCU: 0xEBF5, offset: 0xEBF5, size: 0x8, addend: 0x0, symName: __ZNSt3__16vectorIbNS_9allocatorIbEEEC2Em, symObjAddr: 0xF70, symBinAddr: 0x1000018A8, symSize: 0x88 }
  - { offsetInCU: 0xEC3A, offset: 0xEC3A, size: 0x8, addend: 0x0, symName: __ZNSt3__117__compressed_pairImNS_9allocatorImEEEC1B8ue170006IiNS_18__default_init_tagEEEOT_OT0_, symObjAddr: 0xFF8, symBinAddr: 0x100001930, symSize: 0x3C }
  - { offsetInCU: 0xEC92, offset: 0xEC92, size: 0x8, addend: 0x0, symName: __ZNSt3__16vectorIbNS_9allocatorIbEEE11__vallocateB8ue170006Em, symObjAddr: 0x1034, symBinAddr: 0x10000196C, symSize: 0xA0 }
  - { offsetInCU: 0xECD6, offset: 0xECD6, size: 0x8, addend: 0x0, symName: __ZNSt3__16vectorIbNS_9allocatorIbEEE18__construct_at_endB8ue170006Emb, symObjAddr: 0x10D4, symBinAddr: 0x100001A0C, symSize: 0x108 }
  - { offsetInCU: 0xED2B, offset: 0xED2B, size: 0x8, addend: 0x0, symName: __ZNSt3__117__compressed_pairImNS_9allocatorImEEEC2B8ue170006IiNS_18__default_init_tagEEEOT_OT0_, symObjAddr: 0x11DC, symBinAddr: 0x100001B14, symSize: 0x40 }
  - { offsetInCU: 0xED83, offset: 0xED83, size: 0x8, addend: 0x0, symName: __ZNSt3__122__compressed_pair_elemImLi0ELb0EEC2B8ue170006IivEEOT_, symObjAddr: 0x121C, symBinAddr: 0x100001B54, symSize: 0x24 }
  - { offsetInCU: 0xEDC5, offset: 0xEDC5, size: 0x8, addend: 0x0, symName: __ZNSt3__122__compressed_pair_elemINS_9allocatorImEELi1ELb1EEC2B8ue170006ENS_18__default_init_tagE, symObjAddr: 0x1240, symBinAddr: 0x100001B78, symSize: 0x2C }
  - { offsetInCU: 0xEDFA, offset: 0xEDFA, size: 0x8, addend: 0x0, symName: __ZNSt3__19allocatorImEC2B8ue170006Ev, symObjAddr: 0x126C, symBinAddr: 0x100001BA4, symSize: 0x2C }
  - { offsetInCU: 0xEE24, offset: 0xEE24, size: 0x8, addend: 0x0, symName: __ZNSt3__116__non_trivial_ifILb1ENS_9allocatorImEEEC2B8ue170006Ev, symObjAddr: 0x1298, symBinAddr: 0x100001BD0, symSize: 0x14 }
  - { offsetInCU: 0xEE4E, offset: 0xEE4E, size: 0x8, addend: 0x0, symName: __ZNKSt3__16vectorIbNS_9allocatorIbEEE8max_sizeEv, symObjAddr: 0x12AC, symBinAddr: 0x100001BE4, symSize: 0x7C }
  - { offsetInCU: 0xEE94, offset: 0xEE94, size: 0x8, addend: 0x0, symName: __ZNKSt3__16vectorIbNS_9allocatorIbEEE20__throw_length_errorB8ue170006Ev, symObjAddr: 0x1328, symBinAddr: 0x100001C60, symSize: 0x1C }
  - { offsetInCU: 0xEEBA, offset: 0xEEBA, size: 0x8, addend: 0x0, symName: __ZNSt3__16vectorIbNS_9allocatorIbEEE7__allocB8ue170006Ev, symObjAddr: 0x1384, symBinAddr: 0x100001CBC, symSize: 0x28 }
  - { offsetInCU: 0xEEE0, offset: 0xEEE0, size: 0x8, addend: 0x0, symName: __ZNSt3__16vectorIbNS_9allocatorIbEEE26__external_cap_to_internalB8ue170006Em, symObjAddr: 0x13AC, symBinAddr: 0x100001CE4, symSize: 0x24 }
  - { offsetInCU: 0xEF04, offset: 0xEF04, size: 0x8, addend: 0x0, symName: __ZNSt3__16vectorIbNS_9allocatorIbEEE5__capB8ue170006Ev, symObjAddr: 0x13D0, symBinAddr: 0x100001D08, symSize: 0x28 }
  - { offsetInCU: 0xEF34, offset: 0xEF34, size: 0x8, addend: 0x0, symName: __ZNSt3__116allocator_traitsINS_9allocatorImEEE8max_sizeB8ue170006IS2_vEEmRKS2_, symObjAddr: 0x13F8, symBinAddr: 0x100001D30, symSize: 0x24 }
  - { offsetInCU: 0xEF62, offset: 0xEF62, size: 0x8, addend: 0x0, symName: __ZNKSt3__16vectorIbNS_9allocatorIbEEE7__allocB8ue170006Ev, symObjAddr: 0x141C, symBinAddr: 0x100001D54, symSize: 0x28 }
  - { offsetInCU: 0xEF88, offset: 0xEF88, size: 0x8, addend: 0x0, symName: __ZNSt3__114numeric_limitsImE3maxB8ue170006Ev, symObjAddr: 0x1444, symBinAddr: 0x100001D7C, symSize: 0x14 }
  - { offsetInCU: 0xEF9C, offset: 0xEF9C, size: 0x8, addend: 0x0, symName: __ZNSt3__16vectorIbNS_9allocatorIbEEE26__internal_cap_to_externalB8ue170006Em, symObjAddr: 0x1458, symBinAddr: 0x100001D90, symSize: 0x18 }
  - { offsetInCU: 0xEFC0, offset: 0xEFC0, size: 0x8, addend: 0x0, symName: __ZNKSt3__19allocatorImE8max_sizeB8ue170006Ev, symObjAddr: 0x1470, symBinAddr: 0x100001DA8, symSize: 0x14 }
  - { offsetInCU: 0xEFE6, offset: 0xEFE6, size: 0x8, addend: 0x0, symName: __ZNKSt3__117__compressed_pairImNS_9allocatorImEEE6secondB8ue170006Ev, symObjAddr: 0x1484, symBinAddr: 0x100001DBC, symSize: 0x24 }
  - { offsetInCU: 0xF00C, offset: 0xF00C, size: 0x8, addend: 0x0, symName: __ZNKSt3__122__compressed_pair_elemINS_9allocatorImEELi1ELb1EE5__getB8ue170006Ev, symObjAddr: 0x14A8, symBinAddr: 0x100001DE0, symSize: 0x14 }
  - { offsetInCU: 0xF032, offset: 0xF032, size: 0x8, addend: 0x0, symName: __ZNSt3__123__libcpp_numeric_limitsImLb1EE3maxB8ue170006Ev, symObjAddr: 0x14BC, symBinAddr: 0x100001DF4, symSize: 0x8 }
  - { offsetInCU: 0xF046, offset: 0xF046, size: 0x8, addend: 0x0, symName: __ZNSt12length_errorC1B8ue170006EPKc, symObjAddr: 0x1528, symBinAddr: 0x100001E60, symSize: 0x34 }
  - { offsetInCU: 0xF07E, offset: 0xF07E, size: 0x8, addend: 0x0, symName: __ZNSt12length_errorC2B8ue170006EPKc, symObjAddr: 0x155C, symBinAddr: 0x100001E94, symSize: 0x4C }
  - { offsetInCU: 0xF0B6, offset: 0xF0B6, size: 0x8, addend: 0x0, symName: __ZNSt3__19allocatorImE8allocateB8ue170006Em, symObjAddr: 0x15A8, symBinAddr: 0x100001EE0, symSize: 0x58 }
  - { offsetInCU: 0xF0EA, offset: 0xF0EA, size: 0x8, addend: 0x0, symName: __ZNSt3__117__compressed_pairImNS_9allocatorImEEE6secondB8ue170006Ev, symObjAddr: 0x1680, symBinAddr: 0x100001FB8, symSize: 0x24 }
  - { offsetInCU: 0xF110, offset: 0xF110, size: 0x8, addend: 0x0, symName: __ZNSt3__122__compressed_pair_elemINS_9allocatorImEELi1ELb1EE5__getB8ue170006Ev, symObjAddr: 0x16A4, symBinAddr: 0x100001FDC, symSize: 0x14 }
  - { offsetInCU: 0xF136, offset: 0xF136, size: 0x8, addend: 0x0, symName: __ZNSt3__117__compressed_pairImNS_9allocatorImEEE5firstB8ue170006Ev, symObjAddr: 0x16B8, symBinAddr: 0x100001FF0, symSize: 0x24 }
  - { offsetInCU: 0xF15C, offset: 0xF15C, size: 0x8, addend: 0x0, symName: __ZNSt3__122__compressed_pair_elemImLi0ELb0EE5__getB8ue170006Ev, symObjAddr: 0x16DC, symBinAddr: 0x100002014, symSize: 0x14 }
  - { offsetInCU: 0xF182, offset: 0xF182, size: 0x8, addend: 0x0, symName: __ZNSt3__16vectorIbNS_9allocatorIbEEE11__make_iterB8ue170006Em, symObjAddr: 0x1784, symBinAddr: 0x1000020BC, symSize: 0x64 }
  - { offsetInCU: 0xF1B7, offset: 0xF1B7, size: 0x8, addend: 0x0, symName: __ZNSt3__114__bit_iteratorINS_6vectorIbNS_9allocatorIbEEEELb0ELm0EEC1B8ue170006ERKS5_, symObjAddr: 0x1948, symBinAddr: 0x100002280, symSize: 0x34 }
  - { offsetInCU: 0xF1FA, offset: 0xF1FA, size: 0x8, addend: 0x0, symName: __ZNKSt3__16__lessIvvEclB8ue170006ImmEEbRKT_RKT0_, symObjAddr: 0x1BB0, symBinAddr: 0x1000024E8, symSize: 0x34 }
  - { offsetInCU: 0xF24E, offset: 0xF24E, size: 0x8, addend: 0x0, symName: __ZNSt3__114__bit_iteratorINS_6vectorIbNS_9allocatorIbEEEELb0ELm0EEC2B8ue170006ERKS5_, symObjAddr: 0x1C5C, symBinAddr: 0x100002594, symSize: 0x30 }
  - { offsetInCU: 0xF287, offset: 0xF287, size: 0x8, addend: 0x0, symName: __ZNSt3__114__bit_iteratorINS_6vectorIbNS_9allocatorIbEEEELb0ELm0EEC1B8ue170006EPmj, symObjAddr: 0x1D34, symBinAddr: 0x10000266C, symSize: 0x3C }
  - { offsetInCU: 0xF2CF, offset: 0xF2CF, size: 0x8, addend: 0x0, symName: __ZNSt3__114__bit_iteratorINS_6vectorIbNS_9allocatorIbEEEELb0ELm0EEC2B8ue170006EPmj, symObjAddr: 0x1D70, symBinAddr: 0x1000026A8, symSize: 0x2C }
  - { offsetInCU: 0xF317, offset: 0xF317, size: 0x8, addend: 0x0, symName: __ZNSt3__16vectorIbNS_9allocatorIbEEED2B8ue170006Ev, symObjAddr: 0x1D9C, symBinAddr: 0x1000026D4, symSize: 0x44 }
  - { offsetInCU: 0xF341, offset: 0xF341, size: 0x8, addend: 0x0, symName: __ZNSt3__16vectorIbNS_9allocatorIbEEE16__destroy_vectorC1B8ue170006ERS3_, symObjAddr: 0x1DE0, symBinAddr: 0x100002718, symSize: 0x34 }
  - { offsetInCU: 0xF37A, offset: 0xF37A, size: 0x8, addend: 0x0, symName: __ZNSt3__16vectorIbNS_9allocatorIbEEE16__destroy_vectorclB8ue170006Ev, symObjAddr: 0x1E20, symBinAddr: 0x100002758, symSize: 0x7C }
  - { offsetInCU: 0xF3A0, offset: 0xF3A0, size: 0x8, addend: 0x0, symName: __ZNSt3__16vectorIbNS_9allocatorIbEEE16__destroy_vectorC2B8ue170006ERS3_, symObjAddr: 0x1E9C, symBinAddr: 0x1000027D4, symSize: 0x20 }
  - { offsetInCU: 0xF3D9, offset: 0xF3D9, size: 0x8, addend: 0x0, symName: __ZNSt3__116allocator_traitsINS_9allocatorImEEE10deallocateB8ue170006ERS2_Pmm, symObjAddr: 0x1EBC, symBinAddr: 0x1000027F4, symSize: 0x34 }
  - { offsetInCU: 0xF41B, offset: 0xF41B, size: 0x8, addend: 0x0, symName: __ZNSt3__19allocatorImE10deallocateB8ue170006EPmm, symObjAddr: 0x1EF0, symBinAddr: 0x100002828, symSize: 0x40 }
  - { offsetInCU: 0xF45D, offset: 0xF45D, size: 0x8, addend: 0x0, symName: __ZNSt3__16vectorINS0_IbNS_9allocatorIbEEEENS1_IS3_EEEC2EmRKS3_, symObjAddr: 0x1FAC, symBinAddr: 0x1000028E4, symSize: 0xDC }
  - { offsetInCU: 0xF4C1, offset: 0xF4C1, size: 0x8, addend: 0x0, symName: __ZNSt3__117__compressed_pairIPNS_6vectorIbNS_9allocatorIbEEEENS2_IS4_EEEC1B8ue170006IDnNS_18__default_init_tagEEEOT_OT0_, symObjAddr: 0x2088, symBinAddr: 0x1000029C0, symSize: 0x3C }
  - { offsetInCU: 0xF519, offset: 0xF519, size: 0x8, addend: 0x0, symName: __ZNSt3__16vectorINS0_IbNS_9allocatorIbEEEENS1_IS3_EEE16__destroy_vectorC1B8ue170006ERS5_, symObjAddr: 0x2104, symBinAddr: 0x100002A3C, symSize: 0x34 }
  - { offsetInCU: 0xF552, offset: 0xF552, size: 0x8, addend: 0x0, symName: __ZNSt3__16vectorINS0_IbNS_9allocatorIbEEEENS1_IS3_EEE11__vallocateB8ue170006Em, symObjAddr: 0x2138, symBinAddr: 0x100002A70, symSize: 0xB4 }
  - { offsetInCU: 0xF596, offset: 0xF596, size: 0x8, addend: 0x0, symName: __ZNSt3__16vectorINS0_IbNS_9allocatorIbEEEENS1_IS3_EEE18__construct_at_endEmRKS3_, symObjAddr: 0x21EC, symBinAddr: 0x100002B24, symSize: 0xD0 }
  - { offsetInCU: 0xF617, offset: 0xF617, size: 0x8, addend: 0x0, symName: __ZNSt3__128__exception_guard_exceptionsINS_6vectorINS1_IbNS_9allocatorIbEEEENS2_IS4_EEE16__destroy_vectorEE10__completeB8ue170006Ev, symObjAddr: 0x22BC, symBinAddr: 0x100002BF4, symSize: 0x1C }
  - { offsetInCU: 0xF63D, offset: 0xF63D, size: 0x8, addend: 0x0, symName: __ZNSt3__128__exception_guard_exceptionsINS_6vectorINS1_IbNS_9allocatorIbEEEENS2_IS4_EEE16__destroy_vectorEED1B8ue170006Ev, symObjAddr: 0x22D8, symBinAddr: 0x100002C10, symSize: 0x2C }
  - { offsetInCU: 0xF667, offset: 0xF667, size: 0x8, addend: 0x0, symName: __ZNSt3__117__compressed_pairIPNS_6vectorIbNS_9allocatorIbEEEENS2_IS4_EEEC2B8ue170006IDnNS_18__default_init_tagEEEOT_OT0_, symObjAddr: 0x2304, symBinAddr: 0x100002C3C, symSize: 0x40 }
  - { offsetInCU: 0xF6BF, offset: 0xF6BF, size: 0x8, addend: 0x0, symName: __ZNSt3__122__compressed_pair_elemIPNS_6vectorIbNS_9allocatorIbEEEELi0ELb0EEC2B8ue170006IDnvEEOT_, symObjAddr: 0x2344, symBinAddr: 0x100002C7C, symSize: 0x1C }
  - { offsetInCU: 0xF701, offset: 0xF701, size: 0x8, addend: 0x0, symName: __ZNSt3__122__compressed_pair_elemINS_9allocatorINS_6vectorIbNS1_IbEEEEEELi1ELb1EEC2B8ue170006ENS_18__default_init_tagE, symObjAddr: 0x2360, symBinAddr: 0x100002C98, symSize: 0x2C }
  - { offsetInCU: 0xF736, offset: 0xF736, size: 0x8, addend: 0x0, symName: __ZNSt3__19allocatorINS_6vectorIbNS0_IbEEEEEC2B8ue170006Ev, symObjAddr: 0x238C, symBinAddr: 0x100002CC4, symSize: 0x2C }
  - { offsetInCU: 0xF760, offset: 0xF760, size: 0x8, addend: 0x0, symName: __ZNSt3__116__non_trivial_ifILb1ENS_9allocatorINS_6vectorIbNS1_IbEEEEEEEC2B8ue170006Ev, symObjAddr: 0x23B8, symBinAddr: 0x100002CF0, symSize: 0x14 }
  - { offsetInCU: 0xF78A, offset: 0xF78A, size: 0x8, addend: 0x0, symName: __ZNSt3__128__exception_guard_exceptionsINS_6vectorINS1_IbNS_9allocatorIbEEEENS2_IS4_EEE16__destroy_vectorEEC1B8ue170006ES7_, symObjAddr: 0x23CC, symBinAddr: 0x100002D04, symSize: 0x34 }
  - { offsetInCU: 0xF7C2, offset: 0xF7C2, size: 0x8, addend: 0x0, symName: __ZNSt3__128__exception_guard_exceptionsINS_6vectorINS1_IbNS_9allocatorIbEEEENS2_IS4_EEE16__destroy_vectorEEC2B8ue170006ES7_, symObjAddr: 0x2400, symBinAddr: 0x100002D38, symSize: 0x24 }
  - { offsetInCU: 0xF7FA, offset: 0xF7FA, size: 0x8, addend: 0x0, symName: __ZNSt3__16vectorINS0_IbNS_9allocatorIbEEEENS1_IS3_EEE16__destroy_vectorC2B8ue170006ERS5_, symObjAddr: 0x2424, symBinAddr: 0x100002D5C, symSize: 0x20 }
  - { offsetInCU: 0xF833, offset: 0xF833, size: 0x8, addend: 0x0, symName: __ZNKSt3__16vectorINS0_IbNS_9allocatorIbEEEENS1_IS3_EEE8max_sizeEv, symObjAddr: 0x2444, symBinAddr: 0x100002D7C, symSize: 0x60 }
  - { offsetInCU: 0xF85B, offset: 0xF85B, size: 0x8, addend: 0x0, symName: __ZNKSt3__16vectorINS0_IbNS_9allocatorIbEEEENS1_IS3_EEE20__throw_length_errorB8ue170006Ev, symObjAddr: 0x24A4, symBinAddr: 0x100002DDC, symSize: 0x1C }
  - { offsetInCU: 0xF881, offset: 0xF881, size: 0x8, addend: 0x0, symName: __ZNSt3__16vectorINS0_IbNS_9allocatorIbEEEENS1_IS3_EEE7__allocB8ue170006Ev, symObjAddr: 0x2500, symBinAddr: 0x100002E38, symSize: 0x28 }
  - { offsetInCU: 0xF8A7, offset: 0xF8A7, size: 0x8, addend: 0x0, symName: __ZNSt3__16vectorINS0_IbNS_9allocatorIbEEEENS1_IS3_EEE9__end_capB8ue170006Ev, symObjAddr: 0x2528, symBinAddr: 0x100002E60, symSize: 0x28 }
  - { offsetInCU: 0xF8CD, offset: 0xF8CD, size: 0x8, addend: 0x0, symName: __ZNKSt3__16vectorINS0_IbNS_9allocatorIbEEEENS1_IS3_EEE14__annotate_newB8ue170006Em, symObjAddr: 0x2550, symBinAddr: 0x100002E88, symSize: 0xC8 }
  - { offsetInCU: 0xF90C, offset: 0xF90C, size: 0x8, addend: 0x0, symName: __ZNSt3__116allocator_traitsINS_9allocatorINS_6vectorIbNS1_IbEEEEEEE8max_sizeB8ue170006IS5_vEEmRKS5_, symObjAddr: 0x2618, symBinAddr: 0x100002F50, symSize: 0x24 }
  - { offsetInCU: 0xF93A, offset: 0xF93A, size: 0x8, addend: 0x0, symName: __ZNKSt3__16vectorINS0_IbNS_9allocatorIbEEEENS1_IS3_EEE7__allocB8ue170006Ev, symObjAddr: 0x263C, symBinAddr: 0x100002F74, symSize: 0x28 }
  - { offsetInCU: 0xF960, offset: 0xF960, size: 0x8, addend: 0x0, symName: __ZNSt3__114numeric_limitsIlE3maxB8ue170006Ev, symObjAddr: 0x2664, symBinAddr: 0x100002F9C, symSize: 0x14 }
  - { offsetInCU: 0xF974, offset: 0xF974, size: 0x8, addend: 0x0, symName: __ZNKSt3__19allocatorINS_6vectorIbNS0_IbEEEEE8max_sizeB8ue170006Ev, symObjAddr: 0x2678, symBinAddr: 0x100002FB0, symSize: 0x18 }
  - { offsetInCU: 0xF99A, offset: 0xF99A, size: 0x8, addend: 0x0, symName: __ZNKSt3__117__compressed_pairIPNS_6vectorIbNS_9allocatorIbEEEENS2_IS4_EEE6secondB8ue170006Ev, symObjAddr: 0x2690, symBinAddr: 0x100002FC8, symSize: 0x24 }
  - { offsetInCU: 0xF9C0, offset: 0xF9C0, size: 0x8, addend: 0x0, symName: __ZNKSt3__122__compressed_pair_elemINS_9allocatorINS_6vectorIbNS1_IbEEEEEELi1ELb1EE5__getB8ue170006Ev, symObjAddr: 0x26B4, symBinAddr: 0x100002FEC, symSize: 0x14 }
  - { offsetInCU: 0xF9E6, offset: 0xF9E6, size: 0x8, addend: 0x0, symName: __ZNSt3__123__libcpp_numeric_limitsIlLb1EE3maxB8ue170006Ev, symObjAddr: 0x26C8, symBinAddr: 0x100003000, symSize: 0x8 }
  - { offsetInCU: 0xF9FA, offset: 0xF9FA, size: 0x8, addend: 0x0, symName: __ZNSt3__19allocatorINS_6vectorIbNS0_IbEEEEE8allocateB8ue170006Em, symObjAddr: 0x26D0, symBinAddr: 0x100003008, symSize: 0x5C }
  - { offsetInCU: 0xFA2E, offset: 0xFA2E, size: 0x8, addend: 0x0, symName: __ZNSt3__117__compressed_pairIPNS_6vectorIbNS_9allocatorIbEEEENS2_IS4_EEE6secondB8ue170006Ev, symObjAddr: 0x272C, symBinAddr: 0x100003064, symSize: 0x24 }
  - { offsetInCU: 0xFA54, offset: 0xFA54, size: 0x8, addend: 0x0, symName: __ZNSt3__122__compressed_pair_elemINS_9allocatorINS_6vectorIbNS1_IbEEEEEELi1ELb1EE5__getB8ue170006Ev, symObjAddr: 0x2750, symBinAddr: 0x100003088, symSize: 0x14 }
  - { offsetInCU: 0xFA7A, offset: 0xFA7A, size: 0x8, addend: 0x0, symName: __ZNSt3__117__compressed_pairIPNS_6vectorIbNS_9allocatorIbEEEENS2_IS4_EEE5firstB8ue170006Ev, symObjAddr: 0x2764, symBinAddr: 0x10000309C, symSize: 0x24 }
  - { offsetInCU: 0xFAA0, offset: 0xFAA0, size: 0x8, addend: 0x0, symName: __ZNSt3__122__compressed_pair_elemIPNS_6vectorIbNS_9allocatorIbEEEELi0ELb0EE5__getB8ue170006Ev, symObjAddr: 0x2788, symBinAddr: 0x1000030C0, symSize: 0x14 }
  - { offsetInCU: 0xFAC6, offset: 0xFAC6, size: 0x8, addend: 0x0, symName: __ZNKSt3__16vectorINS0_IbNS_9allocatorIbEEEENS1_IS3_EEE31__annotate_contiguous_containerB8ue170006EPKvS7_S7_S7_, symObjAddr: 0x279C, symBinAddr: 0x1000030D4, symSize: 0x20 }
  - { offsetInCU: 0xFB18, offset: 0xFB18, size: 0x8, addend: 0x0, symName: __ZNKSt3__16vectorINS0_IbNS_9allocatorIbEEEENS1_IS3_EEE4dataB8ue170006Ev, symObjAddr: 0x27BC, symBinAddr: 0x1000030F4, symSize: 0x28 }
  - { offsetInCU: 0xFB3E, offset: 0xFB3E, size: 0x8, addend: 0x0, symName: __ZNKSt3__16vectorINS0_IbNS_9allocatorIbEEEENS1_IS3_EEE8capacityB8ue170006Ev, symObjAddr: 0x27E4, symBinAddr: 0x10000311C, symSize: 0x40 }
  - { offsetInCU: 0xFB64, offset: 0xFB64, size: 0x8, addend: 0x0, symName: __ZNKSt3__16vectorINS0_IbNS_9allocatorIbEEEENS1_IS3_EEE9__end_capB8ue170006Ev, symObjAddr: 0x2838, symBinAddr: 0x100003170, symSize: 0x28 }
  - { offsetInCU: 0xFB8A, offset: 0xFB8A, size: 0x8, addend: 0x0, symName: __ZNKSt3__117__compressed_pairIPNS_6vectorIbNS_9allocatorIbEEEENS2_IS4_EEE5firstB8ue170006Ev, symObjAddr: 0x2860, symBinAddr: 0x100003198, symSize: 0x24 }
  - { offsetInCU: 0xFBB0, offset: 0xFBB0, size: 0x8, addend: 0x0, symName: __ZNKSt3__122__compressed_pair_elemIPNS_6vectorIbNS_9allocatorIbEEEELi0ELb0EE5__getB8ue170006Ev, symObjAddr: 0x2884, symBinAddr: 0x1000031BC, symSize: 0x14 }
  - { offsetInCU: 0xFBEF, offset: 0xFBEF, size: 0x8, addend: 0x0, symName: __ZNSt3__16vectorINS0_IbNS_9allocatorIbEEEENS1_IS3_EEE21_ConstructTransactionC1B8ue170006ERS5_m, symObjAddr: 0x2898, symBinAddr: 0x1000031D0, symSize: 0x3C }
  - { offsetInCU: 0xFC37, offset: 0xFC37, size: 0x8, addend: 0x0, symName: __ZNSt3__116allocator_traitsINS_9allocatorINS_6vectorIbNS1_IbEEEEEEE9constructB8ue170006IS4_JRKS4_EvEEvRS5_PT_DpOT0_, symObjAddr: 0x28D4, symBinAddr: 0x10000320C, symSize: 0x34 }
  - { offsetInCU: 0xFC8E, offset: 0xFC8E, size: 0x8, addend: 0x0, symName: __ZNSt3__16vectorINS0_IbNS_9allocatorIbEEEENS1_IS3_EEE21_ConstructTransactionD1B8ue170006Ev, symObjAddr: 0x2908, symBinAddr: 0x100003240, symSize: 0x2C }
  - { offsetInCU: 0xFCB8, offset: 0xFCB8, size: 0x8, addend: 0x0, symName: __ZNSt3__16vectorINS0_IbNS_9allocatorIbEEEENS1_IS3_EEE21_ConstructTransactionC2B8ue170006ERS5_m, symObjAddr: 0x2934, symBinAddr: 0x10000326C, symSize: 0x4C }
  - { offsetInCU: 0xFD00, offset: 0xFD00, size: 0x8, addend: 0x0, symName: __ZNSt3__19allocatorINS_6vectorIbNS0_IbEEEEE9constructB8ue170006IS3_JRKS3_EEEvPT_DpOT0_, symObjAddr: 0x2980, symBinAddr: 0x1000032B8, symSize: 0x30 }
  - { offsetInCU: 0xFD56, offset: 0xFD56, size: 0x8, addend: 0x0, symName: __ZNSt3__16vectorIbNS_9allocatorIbEEEC1ERKS3_, symObjAddr: 0x29B0, symBinAddr: 0x1000032E8, symSize: 0x34 }
  - { offsetInCU: 0xFD91, offset: 0xFD91, size: 0x8, addend: 0x0, symName: __ZNSt3__16vectorIbNS_9allocatorIbEEEC2ERKS3_, symObjAddr: 0x29E4, symBinAddr: 0x10000331C, symSize: 0xDC }
  - { offsetInCU: 0xFDCC, offset: 0xFDCC, size: 0x8, addend: 0x0, symName: __ZNSt3__116allocator_traitsINS_9allocatorImEEE37select_on_container_copy_constructionB8ue170006IS2_vvEES2_RKS2_, symObjAddr: 0x2AC0, symBinAddr: 0x1000033F8, symSize: 0x10 }
  - { offsetInCU: 0xFE00, offset: 0xFE00, size: 0x8, addend: 0x0, symName: __ZNSt3__117__compressed_pairImNS_9allocatorImEEEC1B8ue170006IiS2_EEOT_OT0_, symObjAddr: 0x2AD0, symBinAddr: 0x100003408, symSize: 0x3C }
  - { offsetInCU: 0xFE58, offset: 0xFE58, size: 0x8, addend: 0x0, symName: __ZNSt3__16vectorIbNS_9allocatorIbEEE18__construct_at_endINS_14__bit_iteratorIS3_Lb1ELm0EEES6_EEvT_T0_m, symObjAddr: 0x2B0C, symBinAddr: 0x100003444, symSize: 0x124 }
  - { offsetInCU: 0xFECE, offset: 0xFECE, size: 0x8, addend: 0x0, symName: __ZNKSt3__16vectorIbNS_9allocatorIbEEE5beginB8ue170006Ev, symObjAddr: 0x2C30, symBinAddr: 0x100003568, symSize: 0x38 }
  - { offsetInCU: 0xFEF4, offset: 0xFEF4, size: 0x8, addend: 0x0, symName: __ZNKSt3__16vectorIbNS_9allocatorIbEEE3endB8ue170006Ev, symObjAddr: 0x2C68, symBinAddr: 0x1000035A0, symSize: 0x38 }
  - { offsetInCU: 0xFF1A, offset: 0xFF1A, size: 0x8, addend: 0x0, symName: __ZNSt3__117__compressed_pairImNS_9allocatorImEEEC2B8ue170006IiS2_EEOT_OT0_, symObjAddr: 0x2CA0, symBinAddr: 0x1000035D8, symSize: 0x44 }
  - { offsetInCU: 0xFF72, offset: 0xFF72, size: 0x8, addend: 0x0, symName: __ZNSt3__122__compressed_pair_elemINS_9allocatorImEELi1ELb1EEC2B8ue170006IS2_vEEOT_, symObjAddr: 0x2CE4, symBinAddr: 0x10000361C, symSize: 0x18 }
  - { offsetInCU: 0xFFD7, offset: 0xFFD7, size: 0x8, addend: 0x0, symName: __ZNKSt3__111__copy_loopINS_17_ClassicAlgPolicyEEclB8ue170006INS_14__bit_iteratorINS_6vectorIbNS_9allocatorIbEEEELb1ELm0EEES9_NS4_IS8_Lb0ELm0EEEEENS_4pairIT_T1_EESC_T0_SD_, symObjAddr: 0x2FC8, symBinAddr: 0x100003900, symSize: 0xC4 }
  - { offsetInCU: 0x10061, offset: 0x10061, size: 0x8, addend: 0x0, symName: __ZNSt3__14pairINS_14__bit_iteratorINS_6vectorIbNS_9allocatorIbEEEELb1ELm0EEES6_EC1B8ue170006IS6_S6_LPv0EEEOT_OT0_, symObjAddr: 0x325C, symBinAddr: 0x100003B94, symSize: 0x3C }
  - { offsetInCU: 0x100BF, offset: 0x100BF, size: 0x8, addend: 0x0, symName: __ZNSt3__14pairINS_14__bit_iteratorINS_6vectorIbNS_9allocatorIbEEEELb1ELm0EEES6_EC2B8ue170006IS6_S6_LPv0EEEOT_OT0_, symObjAddr: 0x3298, symBinAddr: 0x100003BD0, symSize: 0x34 }
  - { offsetInCU: 0x1011D, offset: 0x1011D, size: 0x8, addend: 0x0, symName: __ZNSt3__118__unwrap_iter_implINS_14__bit_iteratorINS_6vectorIbNS_9allocatorIbEEEELb1ELm0EEELb0EE8__unwrapB8ue170006ES6_, symObjAddr: 0x32CC, symBinAddr: 0x100003C04, symSize: 0x24 }
  - { offsetInCU: 0x10140, offset: 0x10140, size: 0x8, addend: 0x0, symName: __ZNKSt3__114__bit_iteratorINS_6vectorIbNS_9allocatorIbEEEELb1ELm0EEdeB8ue170006Ev, symObjAddr: 0x3324, symBinAddr: 0x100003C5C, symSize: 0x44 }
  - { offsetInCU: 0x10166, offset: 0x10166, size: 0x8, addend: 0x0, symName: __ZNKSt3__114__bit_iteratorINS_6vectorIbNS_9allocatorIbEEEELb0ELm0EEdeB8ue170006Ev, symObjAddr: 0x3368, symBinAddr: 0x100003CA0, symSize: 0x44 }
  - { offsetInCU: 0x1018C, offset: 0x1018C, size: 0x8, addend: 0x0, symName: __ZNSt3__114__bit_iteratorINS_6vectorIbNS_9allocatorIbEEEELb1ELm0EEppB8ue170006Ev, symObjAddr: 0x33AC, symBinAddr: 0x100003CE4, symSize: 0x5C }
  - { offsetInCU: 0x101B2, offset: 0x101B2, size: 0x8, addend: 0x0, symName: __ZNSt3__114__bit_iteratorINS_6vectorIbNS_9allocatorIbEEEELb0ELm0EEppB8ue170006Ev, symObjAddr: 0x3408, symBinAddr: 0x100003D40, symSize: 0x5C }
  - { offsetInCU: 0x101D8, offset: 0x101D8, size: 0x8, addend: 0x0, symName: __ZNSt3__115__bit_referenceINS_6vectorIbNS_9allocatorIbEEEELb1EEC1B8ue170006EPmm, symObjAddr: 0x34C8, symBinAddr: 0x100003E00, symSize: 0x3C }
  - { offsetInCU: 0x1021E, offset: 0x1021E, size: 0x8, addend: 0x0, symName: __ZNSt3__115__bit_referenceINS_6vectorIbNS_9allocatorIbEEEELb1EEC2B8ue170006EPmm, symObjAddr: 0x3504, symBinAddr: 0x100003E3C, symSize: 0x2C }
  - { offsetInCU: 0x10264, offset: 0x10264, size: 0x8, addend: 0x0, symName: __ZNSt3__118__unwrap_iter_implINS_14__bit_iteratorINS_6vectorIbNS_9allocatorIbEEEELb0ELm0EEELb0EE8__unwrapB8ue170006ES6_, symObjAddr: 0x3530, symBinAddr: 0x100003E68, symSize: 0x38 }
  - { offsetInCU: 0x1028D, offset: 0x1028D, size: 0x8, addend: 0x0, symName: __ZNSt3__14pairINS_14__bit_iteratorINS_6vectorIbNS_9allocatorIbEEEELb1ELm0EEENS1_IS5_Lb0ELm0EEEEC1B8ue170006IS6_S7_LPv0EEEOT_OT0_, symObjAddr: 0x3568, symBinAddr: 0x100003EA0, symSize: 0x3C }
  - { offsetInCU: 0x102EB, offset: 0x102EB, size: 0x8, addend: 0x0, symName: __ZNSt3__14pairINS_14__bit_iteratorINS_6vectorIbNS_9allocatorIbEEEELb1ELm0EEENS1_IS5_Lb0ELm0EEEEC2B8ue170006IS6_S7_LPv0EEEOT_OT0_, symObjAddr: 0x35A4, symBinAddr: 0x100003EDC, symSize: 0x48 }
  - { offsetInCU: 0x10349, offset: 0x10349, size: 0x8, addend: 0x0, symName: __ZNSt3__118__unwrap_iter_implINS_14__bit_iteratorINS_6vectorIbNS_9allocatorIbEEEELb1ELm0EEELb0EE8__rewrapB8ue170006ES6_S6_, symObjAddr: 0x3660, symBinAddr: 0x100003F98, symSize: 0x2C }
  - { offsetInCU: 0x10377, offset: 0x10377, size: 0x8, addend: 0x0, symName: __ZNSt3__118__unwrap_iter_implINS_14__bit_iteratorINS_6vectorIbNS_9allocatorIbEEEELb0ELm0EEELb0EE8__rewrapB8ue170006ES6_S6_, symObjAddr: 0x368C, symBinAddr: 0x100003FC4, symSize: 0x3C }
  - { offsetInCU: 0x103A7, offset: 0x103A7, size: 0x8, addend: 0x0, symName: __ZNKSt3__16vectorIbNS_9allocatorIbEEE11__make_iterB8ue170006Em, symObjAddr: 0x36C8, symBinAddr: 0x100004000, symSize: 0x5C }
  - { offsetInCU: 0x103DC, offset: 0x103DC, size: 0x8, addend: 0x0, symName: __ZNSt3__114__bit_iteratorINS_6vectorIbNS_9allocatorIbEEEELb1ELm0EEC1B8ue170006EPKmj, symObjAddr: 0x3724, symBinAddr: 0x10000405C, symSize: 0x3C }
  - { offsetInCU: 0x10424, offset: 0x10424, size: 0x8, addend: 0x0, symName: __ZNSt3__114__bit_iteratorINS_6vectorIbNS_9allocatorIbEEEELb1ELm0EEC2B8ue170006EPKmj, symObjAddr: 0x3760, symBinAddr: 0x100004098, symSize: 0x2C }
  - { offsetInCU: 0x1046C, offset: 0x1046C, size: 0x8, addend: 0x0, symName: __ZNSt3__16vectorINS0_IbNS_9allocatorIbEEEENS1_IS3_EEE21_ConstructTransactionD2B8ue170006Ev, symObjAddr: 0x378C, symBinAddr: 0x1000040C4, symSize: 0x20 }
  - { offsetInCU: 0x10496, offset: 0x10496, size: 0x8, addend: 0x0, symName: __ZNSt3__128__exception_guard_exceptionsINS_6vectorINS1_IbNS_9allocatorIbEEEENS2_IS4_EEE16__destroy_vectorEED2B8ue170006Ev, symObjAddr: 0x37AC, symBinAddr: 0x1000040E4, symSize: 0x50 }
  - { offsetInCU: 0x104C0, offset: 0x104C0, size: 0x8, addend: 0x0, symName: __ZNSt3__16vectorINS0_IbNS_9allocatorIbEEEENS1_IS3_EEE16__destroy_vectorclB8ue170006Ev, symObjAddr: 0x37FC, symBinAddr: 0x100004134, symSize: 0x90 }
  - { offsetInCU: 0x104E6, offset: 0x104E6, size: 0x8, addend: 0x0, symName: __ZNSt3__16vectorINS0_IbNS_9allocatorIbEEEENS1_IS3_EEE7__clearB8ue170006Ev, symObjAddr: 0x388C, symBinAddr: 0x1000041C4, symSize: 0x28 }
  - { offsetInCU: 0x1050C, offset: 0x1050C, size: 0x8, addend: 0x0, symName: __ZNKSt3__16vectorINS0_IbNS_9allocatorIbEEEENS1_IS3_EEE17__annotate_deleteB8ue170006Ev, symObjAddr: 0x38B4, symBinAddr: 0x1000041EC, symSize: 0xD4 }
  - { offsetInCU: 0x10532, offset: 0x10532, size: 0x8, addend: 0x0, symName: __ZNSt3__116allocator_traitsINS_9allocatorINS_6vectorIbNS1_IbEEEEEEE10deallocateB8ue170006ERS5_PS4_m, symObjAddr: 0x3988, symBinAddr: 0x1000042C0, symSize: 0x34 }
  - { offsetInCU: 0x10574, offset: 0x10574, size: 0x8, addend: 0x0, symName: __ZNSt3__16vectorINS0_IbNS_9allocatorIbEEEENS1_IS3_EEE22__base_destruct_at_endB8ue170006EPS3_, symObjAddr: 0x39BC, symBinAddr: 0x1000042F4, symSize: 0x8C }
  - { offsetInCU: 0x105B8, offset: 0x105B8, size: 0x8, addend: 0x0, symName: __ZNSt3__116allocator_traitsINS_9allocatorINS_6vectorIbNS1_IbEEEEEEE7destroyB8ue170006IS4_vEEvRS5_PT_, symObjAddr: 0x3A48, symBinAddr: 0x100004380, symSize: 0x2C }
  - { offsetInCU: 0x105F5, offset: 0x105F5, size: 0x8, addend: 0x0, symName: __ZNSt3__19allocatorINS_6vectorIbNS0_IbEEEEE7destroyB8ue170006EPS3_, symObjAddr: 0x3A74, symBinAddr: 0x1000043AC, symSize: 0x28 }
  - { offsetInCU: 0x10629, offset: 0x10629, size: 0x8, addend: 0x0, symName: __ZNSt3__19allocatorINS_6vectorIbNS0_IbEEEEE10deallocateB8ue170006EPS3_m, symObjAddr: 0x3A9C, symBinAddr: 0x1000043D4, symSize: 0x44 }
  - { offsetInCU: 0x1066B, offset: 0x1066B, size: 0x8, addend: 0x0, symName: __ZNSt3__16vectorINS0_IbNS_9allocatorIbEEEENS1_IS3_EEED2B8ue170006Ev, symObjAddr: 0x3AE0, symBinAddr: 0x100004418, symSize: 0x40 }
  - { offsetInCU: 0x10695, offset: 0x10695, size: 0x8, addend: 0x0, symName: __ZNSt3__16vectorIbNS_9allocatorIbEEE10__make_refB8ue170006Em, symObjAddr: 0x3B20, symBinAddr: 0x100004458, symSize: 0x60 }
  - { offsetInCU: 0x106CA, offset: 0x106CA, size: 0x8, addend: 0x0, symName: __ZNSt3__16vectorIbNS_9allocatorIbEEEC2ESt16initializer_listIbE, symObjAddr: 0x3B80, symBinAddr: 0x1000044B8, symSize: 0xBC }
  - { offsetInCU: 0x10722, offset: 0x10722, size: 0x8, addend: 0x0, symName: __ZNKSt16initializer_listIbE4sizeB8ue170006Ev, symObjAddr: 0x3C3C, symBinAddr: 0x100004574, symSize: 0x18 }
  - { offsetInCU: 0x10748, offset: 0x10748, size: 0x8, addend: 0x0, symName: __ZNSt3__16vectorIbNS_9allocatorIbEEE18__construct_at_endIPKbS6_EEvT_T0_m, symObjAddr: 0x3C54, symBinAddr: 0x10000458C, symSize: 0x114 }
  - { offsetInCU: 0x107BE, offset: 0x107BE, size: 0x8, addend: 0x0, symName: __ZNKSt16initializer_listIbE5beginB8ue170006Ev, symObjAddr: 0x3D68, symBinAddr: 0x1000046A0, symSize: 0x18 }
  - { offsetInCU: 0x107E4, offset: 0x107E4, size: 0x8, addend: 0x0, symName: __ZNKSt16initializer_listIbE3endB8ue170006Ev, symObjAddr: 0x3D80, symBinAddr: 0x1000046B8, symSize: 0x20 }
  - { offsetInCU: 0x10823, offset: 0x10823, size: 0x8, addend: 0x0, symName: __ZNKSt3__111__copy_loopINS_17_ClassicAlgPolicyEEclB8ue170006IPKbS5_NS_14__bit_iteratorINS_6vectorIbNS_9allocatorIbEEEELb0ELm0EEEEENS_4pairIT_T1_EESD_T0_SE_, symObjAddr: 0x3FD4, symBinAddr: 0x10000490C, symSize: 0xA8 }
  - { offsetInCU: 0x108AD, offset: 0x108AD, size: 0x8, addend: 0x0, symName: __ZNSt3__14pairIPKbS2_EC1B8ue170006IS2_S2_LPv0EEEOT_OT0_, symObjAddr: 0x4144, symBinAddr: 0x100004A7C, symSize: 0x3C }
  - { offsetInCU: 0x1090B, offset: 0x1090B, size: 0x8, addend: 0x0, symName: __ZNSt3__14pairIPKbS2_EC2B8ue170006IS2_S2_LPv0EEEOT_OT0_, symObjAddr: 0x4180, symBinAddr: 0x100004AB8, symSize: 0x34 }
  - { offsetInCU: 0x10969, offset: 0x10969, size: 0x8, addend: 0x0, symName: __ZNSt3__118__unwrap_iter_implIPKbLb1EE8__unwrapB8ue170006ES2_, symObjAddr: 0x41B4, symBinAddr: 0x100004AEC, symSize: 0x24 }
  - { offsetInCU: 0x1098C, offset: 0x1098C, size: 0x8, addend: 0x0, symName: __ZNSt3__14pairIPKbNS_14__bit_iteratorINS_6vectorIbNS_9allocatorIbEEEELb0ELm0EEEEC1B8ue170006IS2_S8_LPv0EEEOT_OT0_, symObjAddr: 0x41EC, symBinAddr: 0x100004B24, symSize: 0x3C }
  - { offsetInCU: 0x109EA, offset: 0x109EA, size: 0x8, addend: 0x0, symName: __ZNSt3__14pairIPKbNS_14__bit_iteratorINS_6vectorIbNS_9allocatorIbEEEELb0ELm0EEEEC2B8ue170006IS2_S8_LPv0EEEOT_OT0_, symObjAddr: 0x4228, symBinAddr: 0x100004B60, symSize: 0x48 }
  - { offsetInCU: 0x10A48, offset: 0x10A48, size: 0x8, addend: 0x0, symName: __ZNSt3__118__unwrap_iter_implIPKbLb1EE8__rewrapB8ue170006ES2_S2_, symObjAddr: 0x42AC, symBinAddr: 0x100004BE4, symSize: 0x48 }
  - { offsetInCU: 0x10A79, offset: 0x10A79, size: 0x8, addend: 0x0, symName: __ZNSt3__16vectorINS0_IbNS_9allocatorIbEEEENS1_IS3_EEEC2B8ue170006ESt16initializer_listIS3_E, symObjAddr: 0x42F4, symBinAddr: 0x100004C2C, symSize: 0x120 }
  - { offsetInCU: 0x10AC9, offset: 0x10AC9, size: 0x8, addend: 0x0, symName: __ZNKSt16initializer_listINSt3__16vectorIbNS0_9allocatorIbEEEEE4sizeB8ue170006Ev, symObjAddr: 0x4414, symBinAddr: 0x100004D4C, symSize: 0x18 }
  - { offsetInCU: 0x10AEF, offset: 0x10AEF, size: 0x8, addend: 0x0, symName: __ZNSt3__16vectorINS0_IbNS_9allocatorIbEEEENS1_IS3_EEE18__construct_at_endIPKS3_S8_EEvT_T0_m, symObjAddr: 0x442C, symBinAddr: 0x100004D64, symSize: 0x8C }
  - { offsetInCU: 0x10B65, offset: 0x10B65, size: 0x8, addend: 0x0, symName: __ZNKSt16initializer_listINSt3__16vectorIbNS0_9allocatorIbEEEEE5beginB8ue170006Ev, symObjAddr: 0x44B8, symBinAddr: 0x100004DF0, symSize: 0x18 }
  - { offsetInCU: 0x10B8B, offset: 0x10B8B, size: 0x8, addend: 0x0, symName: __ZNKSt16initializer_listINSt3__16vectorIbNS0_9allocatorIbEEEEE3endB8ue170006Ev, symObjAddr: 0x44D0, symBinAddr: 0x100004E08, symSize: 0x28 }
  - { offsetInCU: 0x10BCF, offset: 0x10BCF, size: 0x8, addend: 0x0, symName: __ZNSt3__14pairIPKNS_6vectorIbNS_9allocatorIbEEEES6_EC1B8ue170006IS6_S6_LPv0EEEOT_OT0_, symObjAddr: 0x4788, symBinAddr: 0x1000050C0, symSize: 0x3C }
  - { offsetInCU: 0x10C2D, offset: 0x10C2D, size: 0x8, addend: 0x0, symName: __ZNSt3__14pairIPKNS_6vectorIbNS_9allocatorIbEEEES6_EC2B8ue170006IS6_S6_LPv0EEEOT_OT0_, symObjAddr: 0x47C4, symBinAddr: 0x1000050FC, symSize: 0x34 }
  - { offsetInCU: 0x10C8B, offset: 0x10C8B, size: 0x8, addend: 0x0, symName: __ZNSt3__118__unwrap_iter_implIPKNS_6vectorIbNS_9allocatorIbEEEELb1EE8__unwrapB8ue170006ES6_, symObjAddr: 0x47F8, symBinAddr: 0x100005130, symSize: 0x24 }
  - { offsetInCU: 0x10CAE, offset: 0x10CAE, size: 0x8, addend: 0x0, symName: __ZNSt3__129_AllocatorDestroyRangeReverseINS_9allocatorINS_6vectorIbNS1_IbEEEEEEPS4_EC1B8ue170006ERS5_RS6_S9_, symObjAddr: 0x487C, symBinAddr: 0x1000051B4, symSize: 0x44 }
  - { offsetInCU: 0x10D05, offset: 0x10D05, size: 0x8, addend: 0x0, symName: __ZNSt3__128__exception_guard_exceptionsINS_29_AllocatorDestroyRangeReverseINS_9allocatorINS_6vectorIbNS2_IbEEEEEEPS5_EEE10__completeB8ue170006Ev, symObjAddr: 0x48C0, symBinAddr: 0x1000051F8, symSize: 0x1C }
  - { offsetInCU: 0x10D2B, offset: 0x10D2B, size: 0x8, addend: 0x0, symName: __ZNSt3__128__exception_guard_exceptionsINS_29_AllocatorDestroyRangeReverseINS_9allocatorINS_6vectorIbNS2_IbEEEEEEPS5_EEED1B8ue170006Ev, symObjAddr: 0x48DC, symBinAddr: 0x100005214, symSize: 0x2C }
  - { offsetInCU: 0x10D55, offset: 0x10D55, size: 0x8, addend: 0x0, symName: __ZNSt3__128__exception_guard_exceptionsINS_29_AllocatorDestroyRangeReverseINS_9allocatorINS_6vectorIbNS2_IbEEEEEEPS5_EEEC1B8ue170006ES8_, symObjAddr: 0x4908, symBinAddr: 0x100005240, symSize: 0x34 }
  - { offsetInCU: 0x10D8E, offset: 0x10D8E, size: 0x8, addend: 0x0, symName: __ZNSt3__128__exception_guard_exceptionsINS_29_AllocatorDestroyRangeReverseINS_9allocatorINS_6vectorIbNS2_IbEEEEEEPS5_EEEC2B8ue170006ES8_, symObjAddr: 0x493C, symBinAddr: 0x100005274, symSize: 0x30 }
  - { offsetInCU: 0x10DC7, offset: 0x10DC7, size: 0x8, addend: 0x0, symName: __ZNSt3__129_AllocatorDestroyRangeReverseINS_9allocatorINS_6vectorIbNS1_IbEEEEEEPS4_EC2B8ue170006ERS5_RS6_S9_, symObjAddr: 0x496C, symBinAddr: 0x1000052A4, symSize: 0x38 }
  - { offsetInCU: 0x10E1E, offset: 0x10E1E, size: 0x8, addend: 0x0, symName: __ZNSt3__128__exception_guard_exceptionsINS_29_AllocatorDestroyRangeReverseINS_9allocatorINS_6vectorIbNS2_IbEEEEEEPS5_EEED2B8ue170006Ev, symObjAddr: 0x49A4, symBinAddr: 0x1000052DC, symSize: 0x50 }
  - { offsetInCU: 0x10E48, offset: 0x10E48, size: 0x8, addend: 0x0, symName: __ZNKSt3__129_AllocatorDestroyRangeReverseINS_9allocatorINS_6vectorIbNS1_IbEEEEEEPS4_EclB8ue170006Ev, symObjAddr: 0x49F4, symBinAddr: 0x10000532C, symSize: 0x68 }
  - { offsetInCU: 0x10E6E, offset: 0x10E6E, size: 0x8, addend: 0x0, symName: __ZNSt3__116reverse_iteratorIPNS_6vectorIbNS_9allocatorIbEEEEEC1B8ue170006ES5_, symObjAddr: 0x4ACC, symBinAddr: 0x100005404, symSize: 0x34 }
  - { offsetInCU: 0x10EA6, offset: 0x10EA6, size: 0x8, addend: 0x0, symName: __ZNSt3__116reverse_iteratorIPNS_6vectorIbNS_9allocatorIbEEEEEppB8ue170006Ev, symObjAddr: 0x4B6C, symBinAddr: 0x1000054A4, symSize: 0x20 }
  - { offsetInCU: 0x10ECC, offset: 0x10ECC, size: 0x8, addend: 0x0, symName: __ZNKSt3__116reverse_iteratorIPNS_6vectorIbNS_9allocatorIbEEEEE4baseB8ue170006Ev, symObjAddr: 0x4B8C, symBinAddr: 0x1000054C4, symSize: 0x18 }
  - { offsetInCU: 0x10EF7, offset: 0x10EF7, size: 0x8, addend: 0x0, symName: __ZNSt3__119__to_address_helperINS_16reverse_iteratorIPNS_6vectorIbNS_9allocatorIbEEEEEEvE6__callB8ue170006ERKS7_, symObjAddr: 0x4BA4, symBinAddr: 0x1000054DC, symSize: 0x38 }
  - { offsetInCU: 0x10F1A, offset: 0x10F1A, size: 0x8, addend: 0x0, symName: __ZNKSt3__116reverse_iteratorIPNS_6vectorIbNS_9allocatorIbEEEEEptB8ue170006Ev, symObjAddr: 0x4BDC, symBinAddr: 0x100005514, symSize: 0x24 }
  - { offsetInCU: 0x10F40, offset: 0x10F40, size: 0x8, addend: 0x0, symName: __ZNKSt3__116reverse_iteratorIPNS_6vectorIbNS_9allocatorIbEEEEEdeB8ue170006Ev, symObjAddr: 0x4C00, symBinAddr: 0x100005538, symSize: 0x28 }
  - { offsetInCU: 0x10F74, offset: 0x10F74, size: 0x8, addend: 0x0, symName: __ZNSt3__116reverse_iteratorIPNS_6vectorIbNS_9allocatorIbEEEEEC2B8ue170006ES5_, symObjAddr: 0x4C28, symBinAddr: 0x100005560, symSize: 0x28 }
  - { offsetInCU: 0x10FAC, offset: 0x10FAC, size: 0x8, addend: 0x0, symName: __ZNSt3__118__unwrap_iter_implIPNS_6vectorIbNS_9allocatorIbEEEELb1EE8__unwrapB8ue170006ES5_, symObjAddr: 0x4C50, symBinAddr: 0x100005588, symSize: 0x24 }
  - { offsetInCU: 0x10FCF, offset: 0x10FCF, size: 0x8, addend: 0x0, symName: __ZNSt3__118__unwrap_iter_implIPNS_6vectorIbNS_9allocatorIbEEEELb1EE8__rewrapB8ue170006ES5_S5_, symObjAddr: 0x4C74, symBinAddr: 0x1000055AC, symSize: 0x58 }
  - { offsetInCU: 0x11000, offset: 0x11000, size: 0x8, addend: 0x0, symName: __ZNSt3__16vectorIiNS_9allocatorIiEEEC2B8ue170006ESt16initializer_listIiE, symObjAddr: 0x4CCC, symBinAddr: 0x100005604, symSize: 0x120 }
  - { offsetInCU: 0x11050, offset: 0x11050, size: 0x8, addend: 0x0, symName: __ZNSt3__117__compressed_pairIPiNS_9allocatorIiEEEC1B8ue170006IDnNS_18__default_init_tagEEEOT_OT0_, symObjAddr: 0x4DEC, symBinAddr: 0x100005724, symSize: 0x3C }
  - { offsetInCU: 0x110A8, offset: 0x110A8, size: 0x8, addend: 0x0, symName: __ZNSt3__16vectorIiNS_9allocatorIiEEE16__destroy_vectorC1B8ue170006ERS3_, symObjAddr: 0x4E68, symBinAddr: 0x1000057A0, symSize: 0x34 }
  - { offsetInCU: 0x110E1, offset: 0x110E1, size: 0x8, addend: 0x0, symName: __ZNKSt16initializer_listIiE4sizeB8ue170006Ev, symObjAddr: 0x4E9C, symBinAddr: 0x1000057D4, symSize: 0x18 }
  - { offsetInCU: 0x11107, offset: 0x11107, size: 0x8, addend: 0x0, symName: __ZNSt3__16vectorIiNS_9allocatorIiEEE11__vallocateB8ue170006Em, symObjAddr: 0x4EB4, symBinAddr: 0x1000057EC, symSize: 0xAC }
  - { offsetInCU: 0x1114B, offset: 0x1114B, size: 0x8, addend: 0x0, symName: __ZNSt3__16vectorIiNS_9allocatorIiEEE18__construct_at_endIPKiS6_EEvT_T0_m, symObjAddr: 0x4F60, symBinAddr: 0x100005898, symSize: 0x8C }
  - { offsetInCU: 0x111C1, offset: 0x111C1, size: 0x8, addend: 0x0, symName: __ZNKSt16initializer_listIiE5beginB8ue170006Ev, symObjAddr: 0x4FEC, symBinAddr: 0x100005924, symSize: 0x18 }
  - { offsetInCU: 0x111E7, offset: 0x111E7, size: 0x8, addend: 0x0, symName: __ZNKSt16initializer_listIiE3endB8ue170006Ev, symObjAddr: 0x5004, symBinAddr: 0x10000593C, symSize: 0x20 }
  - { offsetInCU: 0x1120D, offset: 0x1120D, size: 0x8, addend: 0x0, symName: __ZNSt3__128__exception_guard_exceptionsINS_6vectorIiNS_9allocatorIiEEE16__destroy_vectorEE10__completeB8ue170006Ev, symObjAddr: 0x5024, symBinAddr: 0x10000595C, symSize: 0x1C }
  - { offsetInCU: 0x11233, offset: 0x11233, size: 0x8, addend: 0x0, symName: __ZNSt3__128__exception_guard_exceptionsINS_6vectorIiNS_9allocatorIiEEE16__destroy_vectorEED1B8ue170006Ev, symObjAddr: 0x5040, symBinAddr: 0x100005978, symSize: 0x2C }
  - { offsetInCU: 0x1125D, offset: 0x1125D, size: 0x8, addend: 0x0, symName: __ZNSt3__117__compressed_pairIPiNS_9allocatorIiEEEC2B8ue170006IDnNS_18__default_init_tagEEEOT_OT0_, symObjAddr: 0x506C, symBinAddr: 0x1000059A4, symSize: 0x40 }
  - { offsetInCU: 0x112B5, offset: 0x112B5, size: 0x8, addend: 0x0, symName: __ZNSt3__122__compressed_pair_elemIPiLi0ELb0EEC2B8ue170006IDnvEEOT_, symObjAddr: 0x50AC, symBinAddr: 0x1000059E4, symSize: 0x1C }
  - { offsetInCU: 0x112F7, offset: 0x112F7, size: 0x8, addend: 0x0, symName: __ZNSt3__122__compressed_pair_elemINS_9allocatorIiEELi1ELb1EEC2B8ue170006ENS_18__default_init_tagE, symObjAddr: 0x50C8, symBinAddr: 0x100005A00, symSize: 0x2C }
  - { offsetInCU: 0x1132C, offset: 0x1132C, size: 0x8, addend: 0x0, symName: __ZNSt3__19allocatorIiEC2B8ue170006Ev, symObjAddr: 0x50F4, symBinAddr: 0x100005A2C, symSize: 0x2C }
  - { offsetInCU: 0x11356, offset: 0x11356, size: 0x8, addend: 0x0, symName: __ZNSt3__116__non_trivial_ifILb1ENS_9allocatorIiEEEC2B8ue170006Ev, symObjAddr: 0x5120, symBinAddr: 0x100005A58, symSize: 0x14 }
  - { offsetInCU: 0x11380, offset: 0x11380, size: 0x8, addend: 0x0, symName: __ZNSt3__128__exception_guard_exceptionsINS_6vectorIiNS_9allocatorIiEEE16__destroy_vectorEEC1B8ue170006ES5_, symObjAddr: 0x5134, symBinAddr: 0x100005A6C, symSize: 0x34 }
  - { offsetInCU: 0x113B8, offset: 0x113B8, size: 0x8, addend: 0x0, symName: __ZNSt3__128__exception_guard_exceptionsINS_6vectorIiNS_9allocatorIiEEE16__destroy_vectorEEC2B8ue170006ES5_, symObjAddr: 0x5168, symBinAddr: 0x100005AA0, symSize: 0x24 }
  - { offsetInCU: 0x113F0, offset: 0x113F0, size: 0x8, addend: 0x0, symName: __ZNSt3__16vectorIiNS_9allocatorIiEEE16__destroy_vectorC2B8ue170006ERS3_, symObjAddr: 0x518C, symBinAddr: 0x100005AC4, symSize: 0x20 }
  - { offsetInCU: 0x11429, offset: 0x11429, size: 0x8, addend: 0x0, symName: __ZNKSt3__16vectorIiNS_9allocatorIiEEE8max_sizeEv, symObjAddr: 0x51AC, symBinAddr: 0x100005AE4, symSize: 0x60 }
  - { offsetInCU: 0x11451, offset: 0x11451, size: 0x8, addend: 0x0, symName: __ZNKSt3__16vectorIiNS_9allocatorIiEEE20__throw_length_errorB8ue170006Ev, symObjAddr: 0x520C, symBinAddr: 0x100005B44, symSize: 0x1C }
  - { offsetInCU: 0x11477, offset: 0x11477, size: 0x8, addend: 0x0, symName: __ZNSt3__16vectorIiNS_9allocatorIiEEE7__allocB8ue170006Ev, symObjAddr: 0x5268, symBinAddr: 0x100005BA0, symSize: 0x28 }
  - { offsetInCU: 0x1149D, offset: 0x1149D, size: 0x8, addend: 0x0, symName: __ZNSt3__16vectorIiNS_9allocatorIiEEE9__end_capB8ue170006Ev, symObjAddr: 0x5290, symBinAddr: 0x100005BC8, symSize: 0x28 }
  - { offsetInCU: 0x114C3, offset: 0x114C3, size: 0x8, addend: 0x0, symName: __ZNKSt3__16vectorIiNS_9allocatorIiEEE14__annotate_newB8ue170006Em, symObjAddr: 0x52B8, symBinAddr: 0x100005BF0, symSize: 0xAC }
  - { offsetInCU: 0x11502, offset: 0x11502, size: 0x8, addend: 0x0, symName: __ZNSt3__116allocator_traitsINS_9allocatorIiEEE8max_sizeB8ue170006IS2_vEEmRKS2_, symObjAddr: 0x5364, symBinAddr: 0x100005C9C, symSize: 0x24 }
  - { offsetInCU: 0x11530, offset: 0x11530, size: 0x8, addend: 0x0, symName: __ZNKSt3__16vectorIiNS_9allocatorIiEEE7__allocB8ue170006Ev, symObjAddr: 0x5388, symBinAddr: 0x100005CC0, symSize: 0x28 }
  - { offsetInCU: 0x11556, offset: 0x11556, size: 0x8, addend: 0x0, symName: __ZNKSt3__19allocatorIiE8max_sizeB8ue170006Ev, symObjAddr: 0x53B0, symBinAddr: 0x100005CE8, symSize: 0x14 }
  - { offsetInCU: 0x1157C, offset: 0x1157C, size: 0x8, addend: 0x0, symName: __ZNKSt3__117__compressed_pairIPiNS_9allocatorIiEEE6secondB8ue170006Ev, symObjAddr: 0x53C4, symBinAddr: 0x100005CFC, symSize: 0x24 }
  - { offsetInCU: 0x115A2, offset: 0x115A2, size: 0x8, addend: 0x0, symName: __ZNKSt3__122__compressed_pair_elemINS_9allocatorIiEELi1ELb1EE5__getB8ue170006Ev, symObjAddr: 0x53E8, symBinAddr: 0x100005D20, symSize: 0x14 }
  - { offsetInCU: 0x115C8, offset: 0x115C8, size: 0x8, addend: 0x0, symName: __ZNSt3__19allocatorIiE8allocateB8ue170006Em, symObjAddr: 0x53FC, symBinAddr: 0x100005D34, symSize: 0x58 }
  - { offsetInCU: 0x115FC, offset: 0x115FC, size: 0x8, addend: 0x0, symName: __ZNSt3__117__compressed_pairIPiNS_9allocatorIiEEE6secondB8ue170006Ev, symObjAddr: 0x5454, symBinAddr: 0x100005D8C, symSize: 0x24 }
  - { offsetInCU: 0x11622, offset: 0x11622, size: 0x8, addend: 0x0, symName: __ZNSt3__122__compressed_pair_elemINS_9allocatorIiEELi1ELb1EE5__getB8ue170006Ev, symObjAddr: 0x5478, symBinAddr: 0x100005DB0, symSize: 0x14 }
  - { offsetInCU: 0x11648, offset: 0x11648, size: 0x8, addend: 0x0, symName: __ZNSt3__117__compressed_pairIPiNS_9allocatorIiEEE5firstB8ue170006Ev, symObjAddr: 0x548C, symBinAddr: 0x100005DC4, symSize: 0x24 }
  - { offsetInCU: 0x1166E, offset: 0x1166E, size: 0x8, addend: 0x0, symName: __ZNSt3__122__compressed_pair_elemIPiLi0ELb0EE5__getB8ue170006Ev, symObjAddr: 0x54B0, symBinAddr: 0x100005DE8, symSize: 0x14 }
  - { offsetInCU: 0x11694, offset: 0x11694, size: 0x8, addend: 0x0, symName: __ZNKSt3__16vectorIiNS_9allocatorIiEEE31__annotate_contiguous_containerB8ue170006EPKvS5_S5_S5_, symObjAddr: 0x54C4, symBinAddr: 0x100005DFC, symSize: 0x20 }
  - { offsetInCU: 0x116E6, offset: 0x116E6, size: 0x8, addend: 0x0, symName: __ZNKSt3__16vectorIiNS_9allocatorIiEEE4dataB8ue170006Ev, symObjAddr: 0x54E4, symBinAddr: 0x100005E1C, symSize: 0x28 }
  - { offsetInCU: 0x1170C, offset: 0x1170C, size: 0x8, addend: 0x0, symName: __ZNKSt3__16vectorIiNS_9allocatorIiEEE8capacityB8ue170006Ev, symObjAddr: 0x550C, symBinAddr: 0x100005E44, symSize: 0x40 }
  - { offsetInCU: 0x11732, offset: 0x11732, size: 0x8, addend: 0x0, symName: __ZNKSt3__16vectorIiNS_9allocatorIiEEE9__end_capB8ue170006Ev, symObjAddr: 0x5560, symBinAddr: 0x100005E98, symSize: 0x28 }
  - { offsetInCU: 0x11758, offset: 0x11758, size: 0x8, addend: 0x0, symName: __ZNKSt3__117__compressed_pairIPiNS_9allocatorIiEEE5firstB8ue170006Ev, symObjAddr: 0x5588, symBinAddr: 0x100005EC0, symSize: 0x24 }
  - { offsetInCU: 0x1177E, offset: 0x1177E, size: 0x8, addend: 0x0, symName: __ZNKSt3__122__compressed_pair_elemIPiLi0ELb0EE5__getB8ue170006Ev, symObjAddr: 0x55AC, symBinAddr: 0x100005EE4, symSize: 0x14 }
  - { offsetInCU: 0x117BD, offset: 0x117BD, size: 0x8, addend: 0x0, symName: __ZNSt3__16vectorIiNS_9allocatorIiEEE21_ConstructTransactionC1B8ue170006ERS3_m, symObjAddr: 0x55C0, symBinAddr: 0x100005EF8, symSize: 0x3C }
  - { offsetInCU: 0x11805, offset: 0x11805, size: 0x8, addend: 0x0, symName: __ZNSt3__16vectorIiNS_9allocatorIiEEE21_ConstructTransactionD1B8ue170006Ev, symObjAddr: 0x567C, symBinAddr: 0x100005FB4, symSize: 0x2C }
  - { offsetInCU: 0x1182F, offset: 0x1182F, size: 0x8, addend: 0x0, symName: __ZNSt3__16vectorIiNS_9allocatorIiEEE21_ConstructTransactionC2B8ue170006ERS3_m, symObjAddr: 0x56A8, symBinAddr: 0x100005FE0, symSize: 0x44 }
  - { offsetInCU: 0x11895, offset: 0x11895, size: 0x8, addend: 0x0, symName: __ZNSt3__14pairIPKiS2_EC1B8ue170006IS2_S2_LPv0EEEOT_OT0_, symObjAddr: 0x5840, symBinAddr: 0x100006178, symSize: 0x3C }
  - { offsetInCU: 0x118F3, offset: 0x118F3, size: 0x8, addend: 0x0, symName: __ZNSt3__14pairIPKiS2_EC2B8ue170006IS2_S2_LPv0EEEOT_OT0_, symObjAddr: 0x587C, symBinAddr: 0x1000061B4, symSize: 0x34 }
  - { offsetInCU: 0x11951, offset: 0x11951, size: 0x8, addend: 0x0, symName: __ZNSt3__118__unwrap_iter_implIPKiLb1EE8__unwrapB8ue170006ES2_, symObjAddr: 0x58B0, symBinAddr: 0x1000061E8, symSize: 0x24 }
  - { offsetInCU: 0x11997, offset: 0x11997, size: 0x8, addend: 0x0, symName: __ZNKSt3__114__copy_trivialclB8ue170006IKiiLi0EEENS_4pairIPT_PT0_EES5_S5_S7_, symObjAddr: 0x5A64, symBinAddr: 0x10000639C, symSize: 0x48 }
  - { offsetInCU: 0x11A09, offset: 0x11A09, size: 0x8, addend: 0x0, symName: __ZNSt3__14pairIPKiPiEC1B8ue170006IRS2_S3_LPv0EEEOT_OT0_, symObjAddr: 0x5C2C, symBinAddr: 0x100006564, symSize: 0x3C }
  - { offsetInCU: 0x11A67, offset: 0x11A67, size: 0x8, addend: 0x0, symName: __ZNSt3__14pairIPKiPiEC2B8ue170006IRS2_S3_LPv0EEEOT_OT0_, symObjAddr: 0x5C68, symBinAddr: 0x1000065A0, symSize: 0x34 }
  - { offsetInCU: 0x11AC5, offset: 0x11AC5, size: 0x8, addend: 0x0, symName: __ZNSt3__14pairIPKiPiEC1B8ue170006IS2_S3_LPv0EEEOT_OT0_, symObjAddr: 0x5C9C, symBinAddr: 0x1000065D4, symSize: 0x3C }
  - { offsetInCU: 0x11B23, offset: 0x11B23, size: 0x8, addend: 0x0, symName: __ZNSt3__14pairIPKiPiEC2B8ue170006IS2_S3_LPv0EEEOT_OT0_, symObjAddr: 0x5CD8, symBinAddr: 0x100006610, symSize: 0x34 }
  - { offsetInCU: 0x11B81, offset: 0x11B81, size: 0x8, addend: 0x0, symName: __ZNSt3__118__unwrap_iter_implIPKiLb1EE8__rewrapB8ue170006ES2_S2_, symObjAddr: 0x5D48, symBinAddr: 0x100006680, symSize: 0x50 }
  - { offsetInCU: 0x11BB2, offset: 0x11BB2, size: 0x8, addend: 0x0, symName: __ZNSt3__118__unwrap_iter_implIPiLb1EE8__unwrapB8ue170006ES1_, symObjAddr: 0x5D98, symBinAddr: 0x1000066D0, symSize: 0x24 }
  - { offsetInCU: 0x11BD5, offset: 0x11BD5, size: 0x8, addend: 0x0, symName: __ZNSt3__118__unwrap_iter_implIPiLb1EE8__rewrapB8ue170006ES1_S1_, symObjAddr: 0x5DBC, symBinAddr: 0x1000066F4, symSize: 0x50 }
  - { offsetInCU: 0x11C06, offset: 0x11C06, size: 0x8, addend: 0x0, symName: __ZNSt3__16vectorIiNS_9allocatorIiEEE21_ConstructTransactionD2B8ue170006Ev, symObjAddr: 0x5E0C, symBinAddr: 0x100006744, symSize: 0x20 }
  - { offsetInCU: 0x11C30, offset: 0x11C30, size: 0x8, addend: 0x0, symName: __ZNSt3__128__exception_guard_exceptionsINS_6vectorIiNS_9allocatorIiEEE16__destroy_vectorEED2B8ue170006Ev, symObjAddr: 0x5E2C, symBinAddr: 0x100006764, symSize: 0x50 }
  - { offsetInCU: 0x11C5A, offset: 0x11C5A, size: 0x8, addend: 0x0, symName: __ZNSt3__16vectorIiNS_9allocatorIiEEE16__destroy_vectorclB8ue170006Ev, symObjAddr: 0x5E7C, symBinAddr: 0x1000067B4, symSize: 0x90 }
  - { offsetInCU: 0x11C80, offset: 0x11C80, size: 0x8, addend: 0x0, symName: __ZNSt3__16vectorIiNS_9allocatorIiEEE7__clearB8ue170006Ev, symObjAddr: 0x5F0C, symBinAddr: 0x100006844, symSize: 0x28 }
  - { offsetInCU: 0x11CA6, offset: 0x11CA6, size: 0x8, addend: 0x0, symName: __ZNKSt3__16vectorIiNS_9allocatorIiEEE17__annotate_deleteB8ue170006Ev, symObjAddr: 0x5F34, symBinAddr: 0x10000686C, symSize: 0xB8 }
  - { offsetInCU: 0x11CCC, offset: 0x11CCC, size: 0x8, addend: 0x0, symName: __ZNSt3__116allocator_traitsINS_9allocatorIiEEE10deallocateB8ue170006ERS2_Pim, symObjAddr: 0x5FEC, symBinAddr: 0x100006924, symSize: 0x34 }
  - { offsetInCU: 0x11D0E, offset: 0x11D0E, size: 0x8, addend: 0x0, symName: __ZNSt3__16vectorIiNS_9allocatorIiEEE22__base_destruct_at_endB8ue170006EPi, symObjAddr: 0x6020, symBinAddr: 0x100006958, symSize: 0x8C }
  - { offsetInCU: 0x11D52, offset: 0x11D52, size: 0x8, addend: 0x0, symName: __ZNSt3__116allocator_traitsINS_9allocatorIiEEE7destroyB8ue170006IivEEvRS2_PT_, symObjAddr: 0x60AC, symBinAddr: 0x1000069E4, symSize: 0x2C }
  - { offsetInCU: 0x11D8F, offset: 0x11D8F, size: 0x8, addend: 0x0, symName: __ZNSt3__19allocatorIiE7destroyB8ue170006EPi, symObjAddr: 0x60D8, symBinAddr: 0x100006A10, symSize: 0x14 }
  - { offsetInCU: 0x11DC3, offset: 0x11DC3, size: 0x8, addend: 0x0, symName: __ZNKSt3__16vectorIiNS_9allocatorIiEEE4sizeB8ue170006Ev, symObjAddr: 0x60EC, symBinAddr: 0x100006A24, symSize: 0x28 }
  - { offsetInCU: 0x11DE9, offset: 0x11DE9, size: 0x8, addend: 0x0, symName: __ZNSt3__19allocatorIiE10deallocateB8ue170006EPim, symObjAddr: 0x6114, symBinAddr: 0x100006A4C, symSize: 0x40 }
  - { offsetInCU: 0x11E2B, offset: 0x11E2B, size: 0x8, addend: 0x0, symName: __ZNSt3__16vectorIiNS_9allocatorIiEEED2B8ue170006Ev, symObjAddr: 0x6154, symBinAddr: 0x100006A8C, symSize: 0x40 }
  - { offsetInCU: 0x11E55, offset: 0x11E55, size: 0x8, addend: 0x0, symName: __ZNSt3__111char_traitsIcE6lengthB8ue170006EPKc, symObjAddr: 0x6380, symBinAddr: 0x100006CB8, symSize: 0x34 }
  - { offsetInCU: 0x11E96, offset: 0x11E96, size: 0x8, addend: 0x0, symName: __ZNKSt3__113basic_ostreamIcNS_11char_traitsIcEEE6sentrycvbB8ue170006Ev, symObjAddr: 0x63B4, symBinAddr: 0x100006CEC, symSize: 0x1C }
  - { offsetInCU: 0x11EBC, offset: 0x11EBC, size: 0x8, addend: 0x0, symName: __ZNSt3__119ostreambuf_iteratorIcNS_11char_traitsIcEEEC1B8ue170006ERNS_13basic_ostreamIcS2_EE, symObjAddr: 0x6610, symBinAddr: 0x100006F48, symSize: 0x34 }
  - { offsetInCU: 0x11EF4, offset: 0x11EF4, size: 0x8, addend: 0x0, symName: __ZNKSt3__18ios_base5flagsB8ue170006Ev, symObjAddr: 0x6644, symBinAddr: 0x100006F7C, symSize: 0x18 }
  - { offsetInCU: 0x11F1C, offset: 0x11F1C, size: 0x8, addend: 0x0, symName: __ZNKSt3__19basic_iosIcNS_11char_traitsIcEEE4fillB8ue170006Ev, symObjAddr: 0x665C, symBinAddr: 0x100006F94, symSize: 0x64 }
  - { offsetInCU: 0x11F44, offset: 0x11F44, size: 0x8, addend: 0x0, symName: __ZNKSt3__119ostreambuf_iteratorIcNS_11char_traitsIcEEE6failedB8ue170006Ev, symObjAddr: 0x66C0, symBinAddr: 0x100006FF8, symSize: 0x24 }
  - { offsetInCU: 0x11F6A, offset: 0x11F6A, size: 0x8, addend: 0x0, symName: __ZNSt3__19basic_iosIcNS_11char_traitsIcEEE8setstateB8ue170006Ej, symObjAddr: 0x66E4, symBinAddr: 0x10000701C, symSize: 0x2C }
  - { offsetInCU: 0x11F9F, offset: 0x11F9F, size: 0x8, addend: 0x0, symName: __ZNKSt3__18ios_base5widthB8ue170006Ev, symObjAddr: 0x6710, symBinAddr: 0x100007048, symSize: 0x18 }
  - { offsetInCU: 0x11FC7, offset: 0x11FC7, size: 0x8, addend: 0x0, symName: __ZNSt3__115basic_streambufIcNS_11char_traitsIcEEE5sputnB8ue170006EPKcl, symObjAddr: 0x6728, symBinAddr: 0x100007060, symSize: 0x3C }
  - { offsetInCU: 0x12009, offset: 0x12009, size: 0x8, addend: 0x0, symName: __ZNSt3__112basic_stringIcNS_11char_traitsIcEENS_9allocatorIcEEEC1B8ue170006Emc, symObjAddr: 0x6764, symBinAddr: 0x10000709C, symSize: 0x3C }
  - { offsetInCU: 0x12051, offset: 0x12051, size: 0x8, addend: 0x0, symName: __ZNKSt3__112basic_stringIcNS_11char_traitsIcEENS_9allocatorIcEEE4dataB8ue170006Ev, symObjAddr: 0x67A0, symBinAddr: 0x1000070D8, symSize: 0x28 }
  - { offsetInCU: 0x12077, offset: 0x12077, size: 0x8, addend: 0x0, symName: __ZNSt3__18ios_base5widthB8ue170006El, symObjAddr: 0x67C8, symBinAddr: 0x100007100, symSize: 0x2C }
  - { offsetInCU: 0x120BD, offset: 0x120BD, size: 0x8, addend: 0x0, symName: __ZNSt3__112basic_stringIcNS_11char_traitsIcEENS_9allocatorIcEEEC2B8ue170006Emc, symObjAddr: 0x67F4, symBinAddr: 0x10000712C, symSize: 0x4C }
  - { offsetInCU: 0x12105, offset: 0x12105, size: 0x8, addend: 0x0, symName: __ZNSt3__117__compressed_pairINS_12basic_stringIcNS_11char_traitsIcEENS_9allocatorIcEEE5__repES5_EC1B8ue170006INS_18__default_init_tagESA_EEOT_OT0_, symObjAddr: 0x6840, symBinAddr: 0x100007178, symSize: 0x3C }
  - { offsetInCU: 0x1215D, offset: 0x1215D, size: 0x8, addend: 0x0, symName: __ZNSt3__117__compressed_pairINS_12basic_stringIcNS_11char_traitsIcEENS_9allocatorIcEEE5__repES5_EC2B8ue170006INS_18__default_init_tagESA_EEOT_OT0_, symObjAddr: 0x687C, symBinAddr: 0x1000071B4, symSize: 0x3C }
  - { offsetInCU: 0x121B5, offset: 0x121B5, size: 0x8, addend: 0x0, symName: __ZNSt3__122__compressed_pair_elemINS_12basic_stringIcNS_11char_traitsIcEENS_9allocatorIcEEE5__repELi0ELb0EEC2B8ue170006ENS_18__default_init_tagE, symObjAddr: 0x68B8, symBinAddr: 0x1000071F0, symSize: 0x14 }
  - { offsetInCU: 0x121EA, offset: 0x121EA, size: 0x8, addend: 0x0, symName: __ZNSt3__122__compressed_pair_elemINS_9allocatorIcEELi1ELb1EEC2B8ue170006ENS_18__default_init_tagE, symObjAddr: 0x68CC, symBinAddr: 0x100007204, symSize: 0x2C }
  - { offsetInCU: 0x1221F, offset: 0x1221F, size: 0x8, addend: 0x0, symName: __ZNSt3__19allocatorIcEC2B8ue170006Ev, symObjAddr: 0x68F8, symBinAddr: 0x100007230, symSize: 0x2C }
  - { offsetInCU: 0x12249, offset: 0x12249, size: 0x8, addend: 0x0, symName: __ZNSt3__116__non_trivial_ifILb1ENS_9allocatorIcEEEC2B8ue170006Ev, symObjAddr: 0x6924, symBinAddr: 0x10000725C, symSize: 0x14 }
  - { offsetInCU: 0x12273, offset: 0x12273, size: 0x8, addend: 0x0, symName: __ZNKSt3__112basic_stringIcNS_11char_traitsIcEENS_9allocatorIcEEE13__get_pointerB8ue170006Ev, symObjAddr: 0x694C, symBinAddr: 0x100007284, symSize: 0x54 }
  - { offsetInCU: 0x12299, offset: 0x12299, size: 0x8, addend: 0x0, symName: __ZNKSt3__112basic_stringIcNS_11char_traitsIcEENS_9allocatorIcEEE9__is_longB8ue170006Ev, symObjAddr: 0x69A0, symBinAddr: 0x1000072D8, symSize: 0x38 }
  - { offsetInCU: 0x122BF, offset: 0x122BF, size: 0x8, addend: 0x0, symName: __ZNKSt3__112basic_stringIcNS_11char_traitsIcEENS_9allocatorIcEEE18__get_long_pointerB8ue170006Ev, symObjAddr: 0x69D8, symBinAddr: 0x100007310, symSize: 0x28 }
  - { offsetInCU: 0x122E5, offset: 0x122E5, size: 0x8, addend: 0x0, symName: __ZNKSt3__112basic_stringIcNS_11char_traitsIcEENS_9allocatorIcEEE19__get_short_pointerB8ue170006Ev, symObjAddr: 0x6A00, symBinAddr: 0x100007338, symSize: 0x28 }
  - { offsetInCU: 0x1230B, offset: 0x1230B, size: 0x8, addend: 0x0, symName: __ZNKSt3__117__compressed_pairINS_12basic_stringIcNS_11char_traitsIcEENS_9allocatorIcEEE5__repES5_E5firstB8ue170006Ev, symObjAddr: 0x6A28, symBinAddr: 0x100007360, symSize: 0x24 }
  - { offsetInCU: 0x12331, offset: 0x12331, size: 0x8, addend: 0x0, symName: __ZNKSt3__122__compressed_pair_elemINS_12basic_stringIcNS_11char_traitsIcEENS_9allocatorIcEEE5__repELi0ELb0EE5__getB8ue170006Ev, symObjAddr: 0x6A4C, symBinAddr: 0x100007384, symSize: 0x14 }
  - { offsetInCU: 0x12357, offset: 0x12357, size: 0x8, addend: 0x0, symName: __ZNSt3__114pointer_traitsIPKcE10pointer_toB8ue170006ERS1_, symObjAddr: 0x6A60, symBinAddr: 0x100007398, symSize: 0x14 }
  - { offsetInCU: 0x1237A, offset: 0x1237A, size: 0x8, addend: 0x0, symName: __ZNSt3__119ostreambuf_iteratorIcNS_11char_traitsIcEEEC2B8ue170006ERNS_13basic_ostreamIcS2_EE, symObjAddr: 0x6A74, symBinAddr: 0x1000073AC, symSize: 0x54 }
  - { offsetInCU: 0x123B2, offset: 0x123B2, size: 0x8, addend: 0x0, symName: __ZNKSt3__19basic_iosIcNS_11char_traitsIcEEE5rdbufB8ue170006Ev, symObjAddr: 0x6AC8, symBinAddr: 0x100007400, symSize: 0x24 }
  - { offsetInCU: 0x123DA, offset: 0x123DA, size: 0x8, addend: 0x0, symName: __ZNKSt3__18ios_base5rdbufB8ue170006Ev, symObjAddr: 0x6AEC, symBinAddr: 0x100007424, symSize: 0x18 }
  - { offsetInCU: 0x12400, offset: 0x12400, size: 0x8, addend: 0x0, symName: __ZNSt3__111char_traitsIcE11eq_int_typeB8ue170006Eii, symObjAddr: 0x6B04, symBinAddr: 0x10000743C, symSize: 0x28 }
  - { offsetInCU: 0x12433, offset: 0x12433, size: 0x8, addend: 0x0, symName: __ZNSt3__111char_traitsIcE3eofB8ue170006Ev, symObjAddr: 0x6B2C, symBinAddr: 0x100007464, symSize: 0x8 }
  - { offsetInCU: 0x12447, offset: 0x12447, size: 0x8, addend: 0x0, symName: __ZNKSt3__19basic_iosIcNS_11char_traitsIcEEE5widenB8ue170006Ec, symObjAddr: 0x6B34, symBinAddr: 0x10000746C, symSize: 0x84 }
  - { offsetInCU: 0x124B0, offset: 0x124B0, size: 0x8, addend: 0x0, symName: __ZNKSt3__15ctypeIcE5widenB8ue170006Ec, symObjAddr: 0x6BE4, symBinAddr: 0x10000751C, symSize: 0x38 }
  - { offsetInCU: 0x124E5, offset: 0x124E5, size: 0x8, addend: 0x0, symName: __ZNSt3__18ios_base8setstateB8ue170006Ej, symObjAddr: 0x6C1C, symBinAddr: 0x100007554, symSize: 0x34 }
...
